(dp0
VAdvertising/Marketing/Media/Design
p1
I0
sV\u901a\u4fe1/\u7535\u4fe1/\u7f51\u7edc\u8bbe\u5907
p2
I63
sV\u9500\u552e/\u5ba2\u670d/\u6280\u672f\u652f\u6301
p3
I11
sV\u653f\u5e9c/\u516c\u5171\u4e8b\u4e1a/\u975e\u76c8\u5229\u673a\u6784
p4
I28
sVConsultant/Legal/Education
p5
I1
sV\u5feb\u901f\u6d88\u8d39\u54c1\uff08\u98df\u54c1/\u996e\u6599/\u70df\u9152/\u65e5\u5316\uff09
p6
I62
sV\u73af\u4fdd
p7
I16
sV\u8010\u7528\u6d88\u8d39\u54c1\uff08\u670d\u9970/\u7eba\u7ec7/\u76ae\u9769/\u5bb6\u5177/\u5bb6\u7535\uff09
p8
I58
sV\u519c/\u6797/\u7267/\u6e14
p9
I37
sV\u7269\u6d41/\u4ed3\u50a8
p10
I54
sVIT\u670d\u52a1(\u7cfb\u7edf/\u6570\u636e/\u7ef4\u62a4)
p11
I48
sV\u623f\u5730\u4ea7/\u5efa\u7b51/\u5efa\u6750/\u5de5\u7a0b
p12
I42
sV\u4e2d\u4ecb\u670d\u52a1
p13
I20
sV\u901a\u4fe1/\u7535\u4fe1\u8fd0\u8425\u3001\u589e\u503c\u670d\u52a1
p14
I64
sV\u751f\u7269/\u5236\u836f/\u533b\u7597/\u62a4\u7406
p15
I19
sV\u4fe1\u6258/\u62c5\u4fdd/\u62cd\u5356/\u5178\u5f53
p16
I25
sV\u7535\u6c14/\u7535\u529b/\u6c34\u5229
p17
I55
sV\u8ba1\u7b97\u673a\u786c\u4ef6
p18
I45
sV\u65c5\u6e38/\u5ea6\u5047
p19
I23
sV\u52a0\u5de5\u5236\u9020\uff08\u539f\u6599\u52a0\u5de5/\u6a21\u5177\uff09
p20
I61
sV\u94f6\u884c
p21
I69
sV\u6c7d\u8f66/\u6469\u6258\u8f66
p22
I53
sV\u68c0\u9a8c/\u68c0\u6d4b/\u8ba4\u8bc1
p23
I47
sV\u7535\u5b50\u6280\u672f/\u534a\u5bfc\u4f53/\u96c6\u6210\u7535\u8def
p24
I65
sS'0'
p25
I15
sV\u4ea4\u901a/\u8fd0\u8f93
p26
I52
sV\u5176\u4ed6
p27
I31
sV\u9152\u5e97/\u9910\u996e
p28
I44
sVAccounting/Finance/Banking/Insurance
p29
I5
sV\u5e7f\u544a/\u4f1a\u5c55/\u516c\u5173
p30
I2
sV\u4fdd\u9669
p31
I70
sV\u8de8\u9886\u57df\u7ecf\u8425
p32
I68
sVHR/Admin/Senior Management
p33
I50
sV\u5370\u5237/\u5305\u88c5/\u9020\u7eb8
p34
I43
sV\u516c\u52a1\u5458/\u7ffb\u8bd1/\u5176\u4ed6
p35
I12
sV\u57fa\u91d1/\u8bc1\u5238/\u671f\u8d27/\u6295\u8d44
p36
I38
sV\u77f3\u6cb9/\u77f3\u5316/\u5316\u5de5
p37
I57
sV\u670d\u52a1\u4e1a
p38
I8
sV\u8d38\u6613/\u8fdb\u51fa\u53e3
p39
I3
sV\u80fd\u6e90/\u77ff\u4ea7/\u91c7\u6398/\u51b6\u70bc
p40
I66
sV\u5927\u578b\u8bbe\u5907/\u673a\u7535\u8bbe\u5907/\u91cd\u5de5\u4e1a
p41
I60
sVSales/Customer Service/Technical Support
p42
I14
sV\u7f51\u7edc\u6e38\u620f
p43
I30
sVComputer/Internet/Telecom/Electronics
p44
I49
sV\u533b\u836f/\u751f\u7269\u5de5\u7a0b
p45
I56
sV\u822a\u7a7a/\u822a\u5929\u7814\u7a76\u4e0e\u5236\u9020
p46
I67
sV\u533b\u7597\u8bbe\u5907/\u5668\u68b0
p47
I26
sV\u96f6\u552e/\u6279\u53d1
p48
I46
sV\u5bb6\u5c45/\u5ba4\u5185\u8bbe\u8ba1/\u88c5\u9970\u88c5\u6f62
p49
I18
sV\u7269\u4e1a\u7ba1\u7406/\u5546\u4e1a\u4e2d\u5fc3
p50
I59
sV\u751f\u4ea7/\u8425\u8fd0/\u91c7\u8d2d/\u7269\u6d41
p51
I35
sV\u5efa\u7b51/\u623f\u5730\u4ea7
p52
I17
sV\u8ba1\u7b97\u673a\u8f6f\u4ef6
p53
I39
sV\u4f1a\u8ba1/\u91d1\u878d/\u94f6\u884c/\u4fdd\u9669
p54
I10
sV\u5b66\u672f/\u79d1\u7814
p55
I41
sV\u8ba1\u7b97\u673a/\u4e92\u8054\u7f51/\u901a\u4fe1/\u7535\u5b50
p56
I13
sV\u4eba\u4e8b/\u884c\u653f/\u9ad8\u7ea7\u7ba1\u7406
p57
I24
sV\u5a92\u4f53/\u51fa\u7248/\u5f71\u89c6/\u6587\u5316\u4f20\u64ad
p58
I9
sV\u5916\u5305\u670d\u52a1
p59
I51
sV\u79df\u8d41\u670d\u52a1
p60
I27
sV\u533b\u7597/\u62a4\u7406/\u7f8e\u5bb9/\u4fdd\u5065/\u536b\u751f\u670d\u52a1
p61
I33
sV\u529e\u516c\u7528\u54c1\u53ca\u8bbe\u5907
p62
I36
sV\u6559\u80b2/\u57f9\u8bad/\u9662\u6821
p63
I22
sV\u54a8\u8be2/\u6cd5\u5f8b/\u6559\u80b2/\u79d1\u7814
p64
I4
sV\u5a31\u4e50/\u4f53\u80b2/\u4f11\u95f2
p65
I21
sV\u4e92\u8054\u7f51/\u7535\u5b50\u5546\u52a1
p66
I29
sV\u4eea\u5668\u4eea\u8868\u53ca\u5de5\u4e1a\u81ea\u52a8\u5316
p67
I34
sVManufacturing/Operation/Purchasing/Logistics
p68
I40
sV\u793c\u54c1/\u73a9\u5177/\u5de5\u827a\u7f8e\u672f/\u6536\u85cf\u54c1/\u5962\u4f88\u54c1
p69
I32
sV\u5e7f\u544a/\u5e02\u573a/\u5a92\u4f53/\u827a\u672f
p70
I7
sV\u4e13\u4e1a\u670d\u52a1/\u54a8\u8be2(\u8d22\u4f1a/\u6cd5\u5f8b/\u4eba\u529b\u8d44\u6e90\u7b49)
p71
I6
s.