(dp0
V\u5de5\u6c11\u5efa
p1
I248
sV\u690d\u7269\u4fdd\u62a4
p2
I565
sV\u7f8e\u672f
p3
I111
sV\u70ed\u80fd\u4e0e\u52a8\u529b\u5de5\u7a0b
p4
I514
sV\u7535\u5b50\u5de5\u7a0b\u4e0e\u7ba1\u7406
p5
I176
sV\u7535\u5b50\u5de5\u7a0b
p6
I524
sV\u63a7\u5236\u7406\u8bba\u4e0e\u63a7\u5236\u5de5\u7a0b
p7
I697
sV\u5b66\u524d\u6559\u80b2
p8
I201
sV\u82f1\u8bed\u6559\u80b2
p9
I416
sV\u5de5\u5546\u7ba1\u7406\u7c7b \u7269\u6d41\u7ba1\u7406
p10
I271
sV\u56fd\u9645\u7ecf\u6d4e\u4e0e\u8d38\u6613
p11
I482
sV\u7f8e\u672f\u5b66
p12
I426
sV\u8d22\u7ecf
p13
I0
sV\u8868\u6f14
p14
I289
sV\u52a8\u753b
p15
I256
sS'0'
p16
I397
sV\u673a\u68b0\u81ea\u52a8\u5316
p17
I529
sV\u6d89\u5916\u6587\u79d8
p18
I147
sV\u4fe1\u606f\u7ba1\u7406\u4e0e\u4fe1\u606f\u7cfb\u7edf
p19
I554
sV\u6750\u6599\u6210\u578b\u4e0e\u63a7\u5236\u5de5\u7a0b
p20
I530
sV\u5e94\u7528\u7ecf\u6d4e\u5b66
p21
I698
sV\u65c5\u6e38\u670d\u52a1\u4e0e\u7ba1\u7406
p22
I133
sV\u65c5\u6e38\u7ba1\u7406
p23
I399
sV\u7535\u5b50\u653f\u52a1
p24
I556
sV\u8ba1\u7b97\u673a\u7f51\u7edc\u4e0e\u5b89\u5168\u7ba1\u7406
p25
I120
sV\u5e94\u7528\u5316\u5de5\u6280\u672f
p26
I1
sV\u98df\u54c1\u5de5\u7a0b
p27
I409
sV\u673a\u68b0\u5236\u9020
p28
I148
sV\u6797\u5b66
p29
I517
sV\u57ce\u5e02\u89c4\u5212
p30
I411
sV\u5de5\u4e1a\u4f01\u4e1a\u7ba1\u7406
p31
I390
sV\u7535\u5b50\u5546\u52a1
p32
I296
sV\u7edf\u8ba1\u5b66
p33
I513
sV\u4f1a\u8ba1\uff08\u6ce8\u518c\u4f1a\u8ba1\u5e08\u65b9\u5411\uff09
p34
I264
sV\u8ba1\u7b97\u673a\u79d1\u5b66\u6280\u672f
p35
I570
sV\u533b\u5b66\u4fe1\u606f\u5b66\u7cfb
p36
I265
sV\u4fe1\u606f\u79d1\u5b66\u6280\u672f
p37
I428
sV\u9ad8\u5206\u5b50\u6750\u6599\u4e0e\u5de5\u7a0b
p38
I597
sV\u73b0\u4ee3\u7269\u6d41\u7ba1\u7406
p39
I151
sV\u7269\u6d41\u4e13\u4e1a
p40
I2
sV\u7535\u5b50\u4e0e\u901a\u4fe1\u5de5\u7a0b
p41
I687
sV\u52a8\u7269\u79d1\u5b66
p42
I500
sV\u57ce\u5e02\u7ba1\u7406
p43
I548
sV\u5fb7\u8bed
p44
I489
sV\u901a\u4fe1\u6280\u672f
p45
I144
sV\u6a21\u5177\u8bbe\u8ba1\u4e0e\u5236\u4f5c
p46
I3
sV\u5e94\u7528\u7535\u5b50
p47
I126
sV\u77e5\u8bc6\u4ea7\u6743
p48
I549
sV\u8fde\u9501\u7ecf\u8425\u7ba1\u7406
p49
I174
sV\u7535\u6c14\u5de5\u7a0b\u4e0e\u81ea\u52a8\u5316
p50
I504
sV\u6c7d\u8f66\u5236\u9020\u4e0e\u88c5\u914d\u6280\u672f
p51
I4
sV\u56fd\u9645\u8d38\u6613\u5b9e\u52a1
p52
I48
sV\u73af\u5883\u827a\u672f
p53
I346
sV\u519c\u6751\u533a\u57df\u53d1\u5c55
p54
I662
sV\u9884\u9632\u533b\u5b66
p55
I438
sV\u673a\u68b0\u5de5\u7a0b\u53ca\u5176\u81ea\u52a8\u5316
p56
I601
sV\u5e02\u573a\u8425\u9500\u4e0e\u7b56\u5212
p57
I226
sV\u8d22\u653f\u5b66
p58
I309
sV\u4e34\u5e8a\u8bca\u65ad
p59
I251
sV\u8f6f\u4ef6\u5de5\u7a0b
p60
I596
sV\u8ba1\u7b97\u673a\u7f51\u7edc\u6280\u672f
p61
I103
sV\u7f51\u7edc\u5de5\u7a0b
p62
I376
sV\u5bf9\u5916\u8d38\u6613
p63
I347
sV\u91d1\u878d
p64
I486
sV\u8ba1\u7b97\u673a\u79d1\u5b66
p65
I602
sV\u6444\u5f71
p66
I490
sV\u6d4b\u63a7\u6280\u672f\u4e0e\u4eea\u5668
p67
I600
sV\u6cd5\u5f8b\u4e8b\u52a1
p68
I178
sV\u8d22\u7ecf\u7c7b
p69
I5
sV\u56fd\u9645\u653f\u6cbb
p70
I676
sV\u8d22\u52a1\u4e0e\u4f1a\u8ba1
p71
I320
sV\u7535\u8111\u8d22\u4f1a
p72
I6
sV\u697c\u5b87\u667a\u80fd\u5316\u5de5\u7a0b\u6280\u672f
p73
I7
sV\u98df\u54c1\u79d1\u5b66\u4e0e\u5de5\u7a0b
p74
I538
sV\u673a\u68b0\u5236\u9020\u5de5\u827a\u53ca\u8bbe\u5907
p75
I377
sV\u6570\u5b57\u5a92\u4f53\u827a\u672f
p76
I592
sV\u5bf9\u5916\u6c49\u8bed
p77
I598
sV\u4f9b\u5e94\u94fe\u7ba1\u7406
p78
I659
sV\u7535\u5b50\u4fe1\u606f\u7c7b
p79
I237
sV\u6a21\u5177\u8bbe\u8ba1
p80
I235
sV\u65b0\u95fb\u5b66
p81
I553
sV\u91c7\u8d2d\u4e0e\u4f9b\u5e94\u94fe\u7ba1\u7406
p82
I617
sV\u827a\u672f\u5b66
p83
I518
sV\u4f1a\u5c55\u7b56\u5212\u4e0e\u7ba1\u7406
p84
I99
sV\u836f\u5b66
p85
I433
sV\u8ba1\u7b97\u673a\u5e94\u7528\u4e0e\u7ba1\u7406
p86
I276
sV\u4ea7\u54c1\u9020\u578b\u8bbe\u8ba1
p87
I8
sV\u751f\u7269\u79d1\u5b66\u4e0e\u751f\u7269\u6280\u672f
p88
I257
sV\u8ba1\u7b97\u673a\u7f51\u7edc
p89
I238
sV\u6cd5\u5f8b\u4e13\u4e1a
p90
I400
sV\u6d4b\u8bd5\u8ba1\u91cf\u6280\u672f\u53ca\u4eea\u5668
p91
I699
sV\u516c\u5171\u7ba1\u7406
p92
I543
sV\u6c7d\u8f66\u7ef4\u4fee
p93
I9
sV\u4fe1\u606f\u7ba1\u7406\u548c\u4fe1\u606f\u7cfb\u7edf
p94
I471
sV\u79d1\u5b66\u6559\u80b2
p95
I202
sV\u4eba\u529b\u8d44\u6e90
p96
I450
sV\u8ba1\u7b97\u673a\u901a\u4fe1\u5de5\u7a0b
p97
I519
sV\u8d22\u52a1\u4f1a\u8ba1\u5b66
p98
I391
sV\u673a\u68b0\u8bbe\u8ba1
p99
I322
sV\u4eba\u529b\u8d44\u6e90\u7ba1\u7406\u4e13\u4e1a
p100
I649
sV\u4f01\u4e1a\u5de5\u5546\u7ba1\u7406
p101
I402
sV\u755c\u7267\u517d\u533b
p102
I227
sV\u4e2d\u897f\u533b\u4e34\u5e8a\u533b\u5b66
p103
I267
sV\u9488\u7078\u63a8\u62ff\u5b66
p104
I288
sV\u519c\u4e1a\u673a\u68b0\u5316\u53ca\u5176\u81ea\u52a8\u5316
p105
I403
sV\u6d89\u5916\u65c5\u6e38
p106
I134
sV\u6c7d\u8f66\u5236\u9020\u4e0e\u7ef4\u4fee
p107
I78
sV\u8ba1\u7b97\u673a\u5e94\u7528
p108
I211
sV\u4f1a\u5c55\u7ecf\u6d4e\u4e0e\u7ba1\u7406
p109
I466
sV\u7535\u5b50\u8ba1\u7b97\u673a
p110
I116
sV\u4fe1\u606f\u6280\u672f\u5e94\u7528\u4e0e\u7ba1\u7406
p111
I557
sV\u81ea\u52a8\u63a7\u5236
p112
I630
sV\u82f1\u8bed\u8bed\u8a00\u6587\u5b66
p113
I654
sV\u56ed\u6797\u6280\u672f
p114
I11
sV\u7535\u5b50\u6280\u672f\u4e0e\u8ba1\u7b97\u673a\u5e94\u7528
p115
I182
sV\u6cf0\u8bed
p116
I491
sV\u751f\u7269\u6280\u672f\u53ca\u5e94\u7528
p117
I12
sV\u8ba1\u7b97\u673a\u8f6f\u4ef6\u6280\u672f
p118
I13
sV\u7269\u4e1a\u7ba1\u7406
p119
I181
sV\u4f1a\u8ba1\u5b66\uff08\u6ce8\u518c\u4f1a\u8ba1\u5e08\u65b9\u5411\uff09
p120
I604
sV\u73af\u5883\u5de5\u7a0b
p121
I590
sV\u7535\u5b50\u4fe1\u606f
p122
I307
sV\u6c7d\u8f66\u670d\u52a1\u5de5\u7a0b
p123
I605
sV\u8ba1\u7b97\u673a\u4e0e\u5e94\u7528
p124
I15
sV\u7ecf\u6d4e\u4e0e\u884c\u653f\u7ba1\u7406
p125
I512
sV\u5e7f\u64ad\u7535\u89c6\u7f16\u5bfc
p126
I564
sV\u884c\u653f\u7ba1\u7406\u5b66
p127
I349
sV\u5eb7\u590d\u4e0e\u8fd0\u52a8\u533b\u5b66
p128
I350
sV\u822a\u7a7a\u670d\u52a1
p129
I160
sV\u89c6\u89c9\u4f20\u8fbe
p130
I454
sV\u7eba\u7ec7
p131
I16
sV\u4f1a\u8ba1
p132
I287
sV\u4f1a\u8ba1\u7535\u7b97\u5316
p133
I104
sV\u8ba1\u7b97\u673a\u4fe1\u606f\u7ba1\u7406
p134
I250
sV\u673a\u7535\u4e00\u4f53\u5316
p135
I179
sV\u6cb9\u6c14\u50a8\u8fd0\u5de5\u7a0b
p136
I606
sV\u8f6f\u4ef6
p137
I183
sV\u8ba1\u7b97\u673a\u4e13\u4e1a
p138
I286
sV\u98df\u54c1\u8425\u517b\u4e0e\u68c0\u6d4b
p139
I80
sV\u56fd\u9645\u5546\u52a1
p140
I437
sV\u65e5\u8bed
p141
I414
sV\u6570\u63a7\u6280\u672f
p142
I98
sV\u5efa\u7b51\u65bd\u5de5\u4e0e\u7ba1\u7406
p143
I141
sV\u65b0\u95fb\u91c7\u7f16\u4e0e\u5236\u4f5c
p144
I19
sV\u7ecf\u6d4e\u7ba1\u7406\u4e0e\u8ba1\u7b97\u673a\u5e94\u7528
p145
I20
sV\u5de5\u5546\u884c\u653f\u7ba1\u7406
p146
I318
sV\u65b0\u95fb\u4e0e\u4f20\u64ad
p147
I670
sV\u7efc\u5408\u7406\u79d1\u6559\u80b2
p148
I105
sV\u673a\u68b0\u5236\u9020\u53ca\u5176\u81ea\u52a8\u5316
p149
I496
sV\u4f1a\u5c55\u7ba1\u7406
p150
I505
sV\u73b0\u4ee3\u7269\u6d41
p151
I18
sV\u673a\u7535\u4e13\u4e1a
p152
I21
sV\u4f1a\u8ba1\u4e0e\u5ba1\u8ba1
p153
I129
sV\u7535\u5b50\u7535\u8111
p154
I22
sV\u5c0f\u5b66\u6559\u80b2
p155
I207
sV\u5e7f\u544a\u827a\u672f\u8bbe\u8ba1
p156
I228
sV\u571f\u6728\u5de5\u7a0b
p157
I429
sV\u751f\u7269\u5316\u5b66\u4e0e\u5206\u5b50\u751f\u7269\u5b66
p158
I700
sV\u65c5\u6e38\u9152\u5e97\u7ba1\u7406
p159
I23
sV\u5de5\u4e1a\u4e0e\u6c11\u7528\u5efa\u7b51
p160
I263
sV\u670d\u88c5\u8bbe\u8ba1
p161
I223
sV\u5b66\u751f
p162
I121
sV\u5316\u5b66\u751f\u7269\u5b66
p163
I380
sV\u6cbb\u5b89\u5b66
p164
I162
sV\u5efa\u7b51\u7ecf\u6d4e\u7ba1\u7406
p165
I382
sV\u5e7f\u544a\u5b66
p166
I544
sV\u4f20\u64ad\u5b66
p167
I672
sV\u70f9\u996a
p168
I24
sV\u56fd\u9645\u822a\u8fd0\u4e1a\u52a1\u7ba1\u7406
p169
I37
sV\u8425\u9500\u7ba1\u7406
p170
I326
sV\u6570\u5b66\u4e0e\u5e94\u7528\u6570\u5b66
p171
I595
sV\u7f51\u7edc\u6280\u672f\u4e0e\u4fe1\u606f\u5904\u7406
p172
I149
sV\u56ed\u827a\u6280\u672f
p173
I25
sV\u8f6e\u673a\u5de5\u7a0b
p174
I321
sV\u666e\u901a
p175
I26
sV\u4eba\u7c7b\u5b66
p176
I663
sV\u7279\u8bb8\u7ecf\u8425\u7ba1\u7406
p177
I646
sV\u56fd\u9645\u8d38\u6613
p178
I329
sV\u8ba1\u7b97\u673a
p179
I159
sV\u620f\u5267\u5f71\u89c6\u7f8e\u672f\u8bbe\u8ba1
p180
I299
sV\u7535\u7b97\u4f1a\u8ba1
p181
I163
sV\u82f1\u8bed\u4e13\u4e1a
p182
I539
sV\u4f1a\u8ba1\u7855\u58eb
p183
I693
sV\u91d1\u878d\u5de5\u7a0b
p184
I657
sV\u519c\u4e1a\u5efa\u7b51\u73af\u5883\u4e0e\u80fd\u6e90\u5de5\u7a0b
p185
I268
sV\u79d8\u4e66
p186
I27
sV\u620f\u5267\u5f71\u89c6\u6587\u5b66
p187
I607
sV\u793e\u4f1a\u4f53\u80b2
p188
I516
sV\u8ba1\u7b97\u673a\u5e94\u7528\u4e0e\u7ef4\u4fee
p189
I28
sV\u8d22\u4f1a
p190
I114
sV\u4e2d\u836f\u5236\u836f
p191
I184
sV\u4fe1\u7528\u7ba1\u7406
p192
I311
sV\u751f\u7269\u79d1\u5b66
p193
I568
sV\u5546\u52a1\u6587\u79d8
p194
I150
sV\u836f\u7269\u5236\u5242
p195
I398
sV\u6c7d\u8f66\u5de5\u7a0b
p196
I388
sV\u7535\u5b50\u79d1\u5b66\u4e0e\u6280\u672f
p197
I421
sV\u9ad8\u7ea7\u5de5\u5546\u7ba1\u7406
p198
I701
sV\u56ed\u6797
p199
I374
sV\u52a8\u6f2b\u8bbe\u8ba1\u4e0e\u5236\u4f5c
p200
I29
sV\u8ba1\u7b97\u673a\u8d22\u52a1\u4f1a\u8ba1
p201
I57
sV\u6750\u6599\u5b66
p202
I696
sV\u670d\u88c5
p203
I30
sV\u4f1a\u8ba1\u5b66
p204
I465
sV\u5316\u5de5
p205
I185
sV\u9ad8\u5206\u5b50\u6750\u6599
p206
I459
sV\u7535\u5b50\u4fe1\u606f\u79d1\u5b66\u4e0e\u6280\u672f
p207
I340
sV\u5916\u8bed
p208
I351
sV\u8d22\u4f1a\u7535\u7b97\u5316
p209
I145
sV\u5de5\u5546\u7ba1\u7406\u7c7b \u5de5\u5546\u7ba1\u7406
p210
I608
sV\u519c\u4e1a\u8d44\u6e90\u4e0e\u73af\u5883
p211
I609
sV\u673a\u68b0\u8bbe\u8ba1\u53ca\u5236\u9020
p212
I610
sV\u52a8\u7269\u533b\u5b66
p213
I483
sV\u5b89\u5168\u5de5\u7a0b
p214
I527
sV\u571f\u5730\u8d44\u6e90\u7ba1\u7406
p215
I643
sV\u751f\u7269\u6280\u672f
p216
I495
sV\u5149\u7535\u4fe1\u606f\u5de5\u7a0b
p217
I469
sV\u6587\u79d8\u4e13\u4e1a
p218
I168
sV\u5e73\u9762\u8bbe\u8ba1
p219
I229
sV\u7ba1\u7406\u5b66
p220
I647
sV\u7535\u5b50\u6280\u672f\u4e0e\u5e94\u7528
p221
I169
sV\u88c5\u6f62\u8bbe\u8ba1
p222
I203
sV\u56fd\u9645\u5173\u7cfb
p223
I673
sV\u827a\u672f\u8bbe\u8ba1
p224
I341
sV\u7535\u6c14\u5de5\u7a0b\u53ca\u5176\u81ea\u52a8\u5316
p225
I366
sV\u6cd5\u5b66
p226
I510
sV\u6570\u5b57\u5a92\u4f53\u6280\u672f
p227
I408
sV\u6c7d\u8f66\u8fd0\u7528\u6280\u672f
p228
I100
sV\u65e5\u8bed\u4e13\u4e1a
p229
I440
sV\u5730\u7406\u4fe1\u606f\u7cfb\u7edf
p230
I639
sV\u8ba1\u7b97\u673a\u5e94\u7528\u4e0e\u6280\u672f
p231
I269
sV\u7535\u5b50\u6280\u672f\u5e94\u7528
p232
I102
sV\u52b3\u52a8\u7ecf\u6d4e\u5b66
p233
I688
sV\u8ba1\u7b97\u673a\u4fe1\u606f\u6280\u672f
p234
I392
sV\u4e2d\u897f\u533b\u7ed3\u5408
p235
I195
sV\u6559\u80b2
p236
I221
sV\u7ecf\u6d4e\u6cd5\u5b66
p237
I683
sV\u5236\u51b7\u4e0e\u7a7a\u8c03
p238
I31
sV\u5e7c\u5e08
p239
I32
sV\u8ba1\u7b97\u673a\u6280\u672f\u53ca\u5e94\u7528
p240
I386
sV\u7535\u5b50\u4e0e\u4fe1\u606f\u6280\u672f
p241
I33
sV\u673a\u68b0\u8bbe\u8ba1\u5236\u9020\u53ca\u5176\u81ea\u52a8\u5316
p242
I370
sV\u6750\u6599\u7269\u7406
p243
I611
sV\u6570\u5b57\u5a92\u4f53
p244
I448
sV\u5e7f\u544a\u7b56\u5212
p245
I230
sV\u822a\u8fd0\u7ba1\u7406
p246
I404
sV\u7a7a\u4e2d\u4e58\u52a1
p247
I34
sV\u673a\u68b0\u7535\u5b50\u5de5\u7a0b
p248
I655
sV\u673a\u7535\u8bbe\u5907\u7ef4\u4fee\u4e0e\u7ba1\u7406
p249
I36
sV\u73b0\u4ee3\u4f01\u4e1a\u7ba1\u7406
p250
I439
sV\u519c\u5b66
p251
I485
sV\u6797\u4ea7\u5316\u5de5
p252
I558
sV\u5546\u4e1a\u4f01\u4e1a\u7ba1\u7406
p253
I130
sV\u5149\u4fe1\u606f\u79d1\u5b66\u4e0e\u6280\u672f
p254
I591
sV\u7535\u5de5
p255
I38
sV\u6c7d\u8f66\u7ef4\u4fee\u4e0e\u68c0\u6d4b
p256
I215
sV\u5206\u5b50\u79d1\u5b66\u4e0e\u5de5\u7a0b
p257
I383
sV\u7ecf\u6d4e\u6cd5
p258
I498
sV\u5de5\u7a0b\u673a\u68b0
p259
I297
sV\u6863\u6848\u5b66
p260
I612
sV\u8f6f\u4ef6\u8bbe\u8ba1
p261
I39
sV\u8ba1\u7b97\u673a\u5e94\u7528\u4e13\u4e1a
p262
I441
sV\u5efa\u7b51\u88c5\u9970\u5de5\u7a0b\u6280\u672f
p263
I40
sV\u7f51\u7edc\u6280\u672f
p264
I115
sV\u6cd5\u8bed
p265
I547
sV\u666e\u901a\u9ad8\u4e2d
p266
I41
sV\u884c\u653f\u7ba1\u7406
p267
I381
sV\u7f51\u7edc\u5de5\u7a0b\u5e08
p268
I204
sV\u6750\u6599\u5de5\u7a0b
p269
I577
sV\u5de5\u4e1a\u5206\u6790\u4e0e\u68c0\u9a8c
p270
I117
sV\u6c49\u8bed\u8a00
p271
I295
sV\u751f\u7269\u5de5\u7a0b
p272
I555
sV\u6c34\u6587\u4e0e\u6c34\u8d44\u6e90\u5de5\u7a0b
p273
I442
sV\u6587\u5316\u5e02\u573a\u7ecf\u8425\u4e0e\u7ba1\u7406
p274
I152
sV\u62a4\u7406
p275
I153
sV\u8ba1\u7b97\u673a\u6280\u672f
p276
I680
sV\u897f\u73ed\u7259\u8bed
p277
I417
sV\u52a8\u6f2b\u8bbe\u8ba1
p278
I42
sV\u673a\u68b0\u5de5\u7a0b
p279
I668
sV\u751f\u7269
p280
I43
sV\u901a\u4fe1\u5de5\u7a0b
p281
I569
sV\u6c7d\u8f66\u6280\u672f\u670d\u52a1\u4e0e\u8425\u9500
p282
I94
sV\u5149\u5b66\u5de5\u7a0b
p283
I702
sV\u8425\u517b\u4e0e\u98df\u54c1\u536b\u751f\u5b66
p284
I525
sV\u5ba1\u8ba1
p285
I352
sV\u98de\u884c\u5668\u5236\u9020\u5de5\u7a0b
p286
I499
sV\u8f6f\u4ef6\u5f00\u53d1
p287
I209
sV\u4f1a\u5c55\u827a\u672f\u4e0e\u6280\u672f
p288
I258
sV\u7535\u5b50\u5546\u52a1\u53ca\u6cd5\u5f8b
p289
I259
sV\u6570\u63a7\u8bbe\u5907\u5e94\u7528\u4e0e\u7ef4\u62a4
p290
I65
sV\u666e\u9ad8
p291
I44
sV\u91d1\u878d\u7ba1\u7406
p292
I457
sV\u65c5\u6e38\u7ba1\u7406\u7c7b
p293
I335
sV\u73af\u5883\u76d1\u6d4b\u4e0e\u6cbb\u7406\u6280\u672f
p294
I186
sV\u7269\u6d41\u7ba1\u7406\u4e13\u4e1a
p295
I252
sV\u4fe1\u606f\u5b89\u5168
p296
I363
sV\u8425\u9500
p297
I240
sV\u673a\u7535\u6280\u672f\u5e94\u7528
p298
I154
sV\u6750\u6599\u6210\u578b\u53ca\u63a7\u5236\u5de5\u7a0b
p299
I487
sV\u533b\u836f\u8425\u9500
p300
I138
sV\u5de5\u5546\u7ba1\u7406\u5b66
p301
I300
sV\u56fd\u9645\u4f1a\u8ba1
p302
I585
sV\u673a\u68b0\u7535\u5b50\u5de5\u7a0b/\u673a\u7535\u4e00\u4f53\u5316
p303
I443
sV\u6cd5\u5f8b\u6587\u79d8
p304
I45
sV\u62a5\u5173\u4e0e\u56fd\u9645\u8d27\u8fd0
p305
I101
sV\u4fe1\u606f\u8d44\u6e90\u7ba1\u7406
p306
I650
sV\u73af\u5883\u827a\u672f\u8bbe\u8ba1
p307
I333
sV\u6295\u8d44\u4e0e\u7406\u8d22
p308
I205
sV\u710a\u63a5
p309
I353
sV\u671d\u9c9c\u8bed
p310
I420
sV\u8ba1\u7b97\u673a\u79d1\u5b66\u4e0e\u6280\u672f\u4e13\u4e1a
p311
I531
sV\u5de5\u7a0b\u7ba1\u7406
p312
I523
sV\u673a\u68b0\u5236\u9020\u5de5\u827a\u4e0e\u8bbe\u5907
p313
I431
sV\u64ad\u97f3\u4e0e\u4e3b\u6301\u827a\u672f
p314
I536
sV\u5916\u8d38\u82f1\u8bed
p315
I325
sV\u7535\u6c14\u4fe1\u606f\u5de5\u7a0b
p316
I270
sV\u5de5\u5546\u4f01\u4e1a\u7ba1\u7406
p317
I362
sV\u97e9\u8bed
p318
I354
sV\u5e02\u573a\u8425\u9500\u5b66
p319
I532
sV\u82f1\u8bed
p320
I464
sV\u8ba1\u7b97\u673a\u4e0e\u4fe1\u606f\u7ba1\u7406
p321
I46
sV\u52d8\u67e5\u6280\u672f\u4e0e\u5de5\u7a0b
p322
I393
sV\u5ba4\u5185\u88c5\u6f62\u8bbe\u8ba1
p323
I47
sV\u6728\u6750\u79d1\u5b66\u4e0e\u5de5\u7a0b
p324
I444
sV\u7535\u5b50\u4fe1\u606f\u6280\u672f
p325
I222
sV\u4fe1\u606f\u5de5\u7a0b
p326
I434
sV\u6e2f\u53e3\u822a\u9053\u4e0e\u6d77\u5cb8\u5de5\u7a0b
p327
I559
sV\u6c7d\u8f66\u8fd0\u7528\u4e0e\u7ef4\u4fee
p328
I135
sV\u91d1\u878d\u4fdd\u9669
p329
I266
sV\u793e\u4f1a\u5de5\u4f5c
p330
I502
sV\u673a\u68b0
p331
I272
sV\u5546\u52a1\u65e5\u8bed
p332
I208
sV\u4f1a\u8ba1\u5b66\u4e13\u4e1a
p333
I355
sV\u4e2d\u6587\u79d8\u4e66
p334
I50
sV\u5de5\u7a0b\u9020\u4ef7\u7ba1\u7406
p335
I410
sV\u710a\u63a5\u6280\u672f\u4e0e\u5de5\u7a0b
p336
I273
sV\u7ed8\u753b
p337
I343
sV\u5e7f\u544a\u8bbe\u8ba1
p338
I253
sV\u8d44\u6e90\u73af\u5883\u79d1\u5b66
p339
I460
sV\u673a\u68b0\u5236\u9020\u4e0e\u81ea\u52a8\u5316
p340
I233
sV\u8d44\u4ea7\u8bc4\u4f30
p341
I613
sV\u4f01\u4e1a\u7ba1\u7406
p342
I511
sV\u521d\u7b49\u6559\u80b2
p343
I164
sV\u65c5\u6e38\u4e0e\u9152\u5e97\u7ba1\u7406
p344
I213
sV\u4e2d\u6587
p345
I330
sV\u673a\u68b0\u5de5\u7a0b\u53ca\u81ea\u52a8\u5316
p346
I593
sV\u5e94\u7528\u7535\u5b50\u6280\u672f
p347
I146
sV\u4fe1\u606f\u7ba1\u7406
p348
I367
sV\u8ba1\u7b97\u673a\u6280\u672f\u4e0e\u5e94\u7528
p349
I315
sV\u6ce8\u518c\u4f1a\u8ba1\u5e08
p350
I260
sV\u8ba1\u7b97\u673a\u7f51\u7edc\u5e94\u7528
p351
I155
sV\u710a\u63a5\u6280\u672f\u53ca\u81ea\u52a8\u5316
p352
I122
sV\u91d1\u5c5e\u6750\u6599
p353
I614
sV\u56fd\u9645\u4e8b\u52a1\u4e0e\u56fd\u9645\u5173\u7cfb
p354
I690
sV\u9ad8\u5206\u5b50\u6750\u6599\u79d1\u5b66\u4e0e\u5de5\u7a0b
p355
I682
sV\u884c\u653f\u7ba1\u7406\uff08\u81ea\u8003\uff09
p356
I358
sV\u91c7\u77ff\u5de5\u7a0b
p357
I336
sV\u56fd\u9645\u7ecf\u6d4e\u6cd5
p358
I665
sV\u5316\u5b66\u5de5\u7a0b\u4e0e\u5de5\u827a
p359
I583
sV\u827a\u672f\u8bbe\u8ba1\u5b66
p360
I396
sV\u5bfc\u6f14
p361
I615
sV\u5316\u5b66
p362
I515
sV\u6750\u6599\u79d1\u5b66\u4e0e\u5de5\u7a0b
p363
I666
sV\u836f\u7269\u5206\u6790
p364
I492
sV\u9ad8\u4e2d
p365
I52
sV\u6570\u63a7\u6280\u672f\u53ca\u5e94\u7528
p366
I53
sV\u6838\u5de5\u7a0b\u4e0e\u6838\u6280\u672f
p367
I681
sV\u7efc\u5408\u6587\u79d1\u6559\u80b2
p368
I90
sV\u8ba1\u7b97\u673a\u63a7\u5236\u6280\u672f
p369
I187
sV\u8ba1\u7b97\u673a\u7f51\u7edc\u4e0e\u5e94\u7528
p370
I188
sV\u5de5\u4e1a\u8bbe\u8ba1
p371
I451
sV\u516c\u5171\u653f\u7b56\u5b66
p372
I689
sV\u5fc3\u7406\u5b66
p373
I636
sV\u836f\u4e8b\u7ba1\u7406\u4e0e\u4e34\u5e8a\u836f\u5b66
p374
I423
sV\u4fe1\u606f\u4e0e\u8ba1\u7b97\u79d1\u5b66
p375
I599
sV\u7535\u5b50
p376
I119
sV\u5e7f\u64ad\u7535\u89c6\u65b0\u95fb\u5b66
p377
I552
sV\u4e2d\u533b\u5b66
p378
I345
sV\u7535\u529b\u7cfb\u7edf\u53ca\u5176\u81ea\u52a8\u5316
p379
I616
sV\u7269\u6d41\u5de5\u7a0b
p380
I660
sV\u751f\u7269\u533b\u5b66\u5de5\u7a0b
p381
I661
sV\u5efa\u7b51\u5b66
p382
I236
sV\u8bbe\u8ba1
p383
I165
sV\u519c\u6797\u7ecf\u6d4e\u7ba1\u7406
p384
I572
sV\u670d\u88c5\u8bbe\u8ba1\u4e0e\u5de5\u7a0b
p385
I249
sV\u5de5\u5546\u7ba1\u7406\u7c7b
p386
I603
sV\u5ba4\u5185\u8bbe\u8ba1
p387
I225
sV\u7535\u5b50\u4fe1\u606f\u6280\u672f\u53ca\u4ea7\u54c1\u8425\u9500
p388
I54
sV\u9879\u76ee\u7ba1\u7406
p389
I678
sV\u5de5\u7a0b\u76d1\u7406
p390
I189
sV\u5176\u4ed6
p391
I180
sV\u8ba1\u7b97\u673a\u7ba1\u7406
p392
I190
sV\u5149\u7535\u5b50\u6280\u672f\u79d1\u5b66
p393
I378
sV\u8f6f\u4ef6\u6d4b\u8bd5
p394
I142
sV\u77f3\u6cb9\u5de5\u7a0b
p395
I506
sV\u653f\u6cbb
p396
I143
sV\u8d22\u52a1
p397
I139
sV\u8d44\u6e90\u73af\u5883\u4e0e\u57ce\u4e61\u89c4\u5212\u7ba1\u7406
p398
I618
sV\u836f\u5242\u5b66
p399
I387
sV\u4f01\u4e1a\u8d22\u52a1\u7ba1\u7406
p400
I579
sV\u6d89\u5916\u4f1a\u8ba1
p401
I197
sV\u670d\u88c5\u8bbe\u8ba1\u4e0e\u5de5\u827a
p402
I55
sV\u6a21\u5177
p403
I10
sV\u5316\u5de5\u673a\u68b0
p404
I327
sV\u4ea4\u901a\u5de5\u7a0b
p405
I364
sV\u62a4\u7406\u5b66
p406
I212
sV\u5efa\u7b51\u88c5\u9970
p407
I217
sV\u751f\u7269\u5de5\u7a0b\u7cfb
p408
I586
sV\u52b3\u52a8\u4e0e\u793e\u4f1a\u4fdd\u969c
p409
I619
sV\u4f01\u4e1a\u7ba1\u7406\u4e13\u4e1a
p410
I560
sV\u884c\u653f\u7ba1\u7406\u4e13\u4e1a
p411
I35
sV\u56fd\u9645\u7ecf\u6d4e\u8d38\u6613
p412
I571
sV\u5e02\u573a\u8425\u9500
p413
I384
sV\u7269\u7406\u6559\u80b2
p414
I216
sV\u5a92\u4f53\u521b\u610f
p415
I452
sV\u6570\u5b66\u6559\u80b2
p416
I127
sV\u79fb\u52a8\u901a\u4fe1\u6280\u672f
p417
I166
sV\u56fd\u8d38
p418
I533
sV\u673a\u68b0\u52a0\u5de5
p419
I56
sV\u4eba\u6587\u6559\u80b2
p420
I332
sV\u5185\u79d1
p421
I191
sV\u5e94\u7528\u65e5\u8bed
p422
I274
sV\u7535\u5b50\u4e0e\u8ba1\u7b97\u673a\u5de5\u7a0b
p423
I218
sV\u8f66\u8f86\u5de5\u7a0b
p424
I652
sV\u4e16\u754c\u7ecf\u6d4e
p425
I704
sV\u6c34\u5229\u6c34\u7535\u5de5\u7a0b
p426
I313
sV\u7ba1\u7406
p427
I285
sV\u5546\u4e1a\u7ba1\u7406
p428
I648
sV\u5546\u52a1\u7ba1\u7406
p429
I413
sV\u7535\u5b50\u6280\u672f
p430
I95
sV\u751f\u7269\u79d1\u5b66\u4e0e\u6280\u672f\u7cfb
p431
I638
sV\u4e2d\u836f\u5b66
p432
I458
sV\u8ba1\u7b97\u673a\u5e94\u7528\u4e0e\u7ef4\u62a4
p433
I128
sV\u7535\u5b50\u5e94\u7528\u6280\u672f
p434
I58
sV\u7f8e\u672f\u6559\u80b2
p435
I136
sV\u6570\u63a7\u4e13\u4e1a
p436
I241
sV\u5e94\u7528\u7269\u7406
p437
I620
sV\u673a\u68b0\u8bbe\u8ba1\u53ca\u7406\u8bba
p438
I705
sV\u98ce\u666f\u56ed\u6797
p439
I656
sV\u836f\u7269\u5236\u5242\u6280\u672f
p440
I59
sV\u8fc7\u7a0b\u88c5\u5907\u4e0e\u63a7\u5236\u5de5\u7a0b
p441
I546
sV\u5de5\u5546\u7ba1\u7406
p442
I582
sV\u6559\u80b2\u5b66
p443
I379
sV\u8ba1\u7b97\u673a\u5e94\u7528\u8f6f\u4ef6
p444
I621
sV\u7ecf\u6d4e\u8d38\u6613
p445
I277
sV\u5f71\u89c6\u5b66
p446
I427
sV\u7535\u8111\u6587\u79d8
p447
I61
sV\u5fae\u7535\u5b50\u5b66
p448
I462
sV\u5de5\u4e1a\u5de5\u7a0b
p449
I644
sV\u6c34\u4ea7\u517b\u6b96\u5b66
p450
I509
sV\u623f\u5730\u4ea7\u7ecf\u8425\u4e0e\u7ba1\u7406
p451
I356
sV\u5de5\u4e1a\u7535\u6c14\u81ea\u52a8\u5316
p452
I245
sV\u7269\u6d41\u7ba1\u7406
p453
I317
sV\u5e7f\u64ad\u5f71\u89c6\u7f16\u5bfc
p454
I567
sV\u98df\u54c1\u8d28\u91cf\u4e0e\u5b89\u5168
p455
I588
sV\u7535\u7b97\u5316\u4f1a\u8ba1
p456
I62
sV\u5e7f\u544a
p457
I372
sV\u7f51\u7edc\u7ecf\u6d4e\u5b66
p458
I371
sV\u516c\u53f8\u7ba1\u7406
p459
I563
sV\u673a\u68b0\u8bbe\u8ba1\u4e0e\u5236\u9020
p460
I234
sV\u7f51\u7edc\u7cfb\u7edf\u7ba1\u7406
p461
I63
sV\u4e2d\u56fd\u8bed\u8a00\u6587\u5316
p462
I301
sV\u6587\u79d1
p463
I64
sV\u5e94\u7528\u7269\u7406\u5b66
p464
I573
sV\u673a\u7535\u5b89\u88c5\u5de5\u7a0b
p465
I167
sV\u7ecf\u6d4e\u5b66
p466
I481
sV\u5316\u5de5\u5de5\u827a
p467
I304
sV\u6587\u79d8
p468
I96
sV\u5e94\u7528\u5fc3\u7406\u5b66
p469
I658
sV\u6295\u8d44\u5b66
p470
I484
sV\u8ba1\u7b97\u673a\u8f85\u52a9\u8bbe\u8ba1\u4e0e\u5236\u9020
p471
I199
sV\u7ba1\u7406\u79d1\u5b66
p472
I522
sV\u8ba1\u7b97\u673a\u53ca\u5e94\u7528
p473
I284
sV\u5546\u54c1\u5b66
p474
I445
sV\u8ba1\u7b97\u673a\u8f6f\u4ef6\u5de5\u7a0b
p475
I461
sV\u5168\u79d1\u533b\u5b66
p476
I200
sV\u4eba\u529b\u8d44\u6e90\u7ba1\u7406
p477
I578
sV\u56fd\u9645\u7ecf\u6d4e\u4e0e\u7ba1\u7406
p478
I622
sV\u5e02\u573a\u8425\u9500\u7ba1\u7406
p479
I446
sV\u8ba1\u7b97\u673a\u591a\u5a92\u4f53
p480
I137
sV\u97f3\u4e50\u8868\u6f14
p481
I456
sV\u5e94\u7528\u8bed\u8a00\u5b66
p482
I405
sV\u516c\u5b89\u7ba1\u7406\u5b66
p483
I422
sV\u5305\u88c5\u5de5\u7a0b
p484
I589
sV\u5370\u5237\u5de5\u7a0b
p485
I419
sV\u7406\u79d1
p486
I93
sV\u9152\u5e97\u7ba1\u7406
p487
I177
sV\u8ba1\u7b97\u673a\u7f51\u7edc\u5de5\u7a0b
p488
I430
sV\u7cbe\u7ec6\u5316\u5de5
p489
I290
sV\u4e34\u5e8a\u533b\u5b66
p490
I308
sV\u8425\u9500\u4e0e\u7b56\u5212
p491
I112
sV\u89c6\u89c9\u4f20\u8fbe\u8bbe\u8ba1
p492
I323
sV\u7535\u5b50\u5de5\u7a0b\u4e0e\u81ea\u52a8\u5316
p493
I337
sV\u751f\u7269\u5236\u836f
p494
I385
sV\u81ea\u52a8\u5316
p495
I576
sV\u4fe1\u53f7\u4e0e\u4fe1\u606f\u5904\u7406
p496
I712
sV\u6587\u79d8\u4e0e\u529e\u516c\u81ea\u52a8\u5316
p497
I66
sV\u98de\u884c\u5668\u8bbe\u8ba1\u4e0e\u5de5\u7a0b
p498
I561
sV\u65e5\u672c\u8bed
p499
I294
sV\u8fd0\u52a8\u8bad\u7ec3
p500
I375
sV\u7535\u5b50\u7535\u5de5
p501
I67
sV\u7ed9\u6c34\u6392\u6c34\u5de5\u7a0b
p502
I435
sV\u533a\u57df\u7ecf\u6d4e\u5b66
p503
I706
sV\u6587\u5316\u4ea7\u4e1a\u7ba1\u7406
p504
I501
sV\u8f6f\u4ef6\u5de5\u7a0b\u4e13\u4e1a
p505
I664
sV\u65b0\u95fb
p506
I645
sV\u8fd0\u52a8\u4eba\u4f53\u79d1\u5b66
p507
I651
sV\u6c7d\u8f66\u8fd0\u7528\u5de5\u7a0b
p508
I580
sV\u97f3\u4e50\u5b66
p509
I497
sV\u7535\u5b50\u4fe1\u606f\u5de5\u7a0b\u4e13\u4e1a
p510
I401
sV\u65e0\u673a\u975e\u91d1\u5c5e\u6750\u6599\u5de5\u7a0b
p511
I637
sV\u91c7\u8d2d\u4e0e\u4f9b\u5e94\u7ba1\u7406
p512
I503
sV\u53e3\u8154\u533b\u5b66
p513
I328
sV\u623f\u5c4b\u5efa\u7b51\u5de5\u7a0b
p514
I68
sV\u7535\u6c14\u6280\u672f
p515
I472
sV\u5de5\u5546\u7ba1\u7406\u7855\u58eb
p516
I695
sV\u63a7\u5236\u5de5\u7a0b
p517
I691
sV\u8ba1\u7b97\u673a\u5e94\u7528\u6280\u672f
p518
I291
sV\u673a\u7535\u4e00\u4f53\u5316\u6280\u672f
p519
I108
sV\u8ba1\u7b97\u673a\u8f6f\u4ef6\u53ca\u5e94\u7528
p520
I348
sV\u56fd\u9645\u9152\u5e97\u7ba1\u7406
p521
I623
sV\u6570\u63a7\u6280\u672f\u4e0e\u5e94\u7528
p522
I69
sV\u4fc4\u8bed
p523
I624
sVMBA
p524
I692
sV\u7535\u6c14\u81ea\u52a8\u5316\u6280\u672f
p525
I49
sV\u8ba1\u7b97\u673a\u591a\u5a92\u4f53\u6280\u672f
p526
I70
sV\u5370\u5237\u6280\u672f
p527
I71
sV\u8d22\u52a1\u4f1a\u8ba1\u4e0e\u5ba1\u8ba1
p528
I447
sV\u7535\u5b50\u4fe1\u606f\u7c7b \u8ba1\u7b97\u673a\u4fe1\u606f\u7ba1\u7406
p529
I242
sV\u5de5\u5546\u7ba1\u7406\u4e13\u4e1a
p530
I581
sV\u65e0\u7ebf\u7535\u6280\u672f
p531
I293
sV\u529e\u516c\u81ea\u52a8\u5316
p532
I106
sV\u4f1a\u8ba1\u4e13\u4e1a
p533
I261
sV\u88c5\u6f62\u827a\u672f\u8bbe\u8ba1
p534
I157
sV\u6c7d\u8f66\u8425\u9500
p535
I72
sV\u5236\u836f\u5de5\u7a0b
p536
I476
sV\u653f\u6cbb\u5b66\u4e0e\u884c\u653f\u5b66
p537
I453
sV\u8ba1\u7b97\u673a\u63a7\u5236\u53ca\u5e94\u7528
p538
I625
sV\u7535\u5b50\u4fe1\u606f\u5de5\u7a0b\u6280\u672f
p539
I158
sV\u673a\u7535\u4e00\u4f53\u5316\u5de5\u7a0b
p540
I338
sV\u6d77\u6d0b\u6e14\u4e1a\u79d1\u5b66\u4e0e\u6280\u672f
p541
I626
sV\u65e0
p542
I97
sV\u901a\u4fe1\u4e0e\u4fe1\u606f\u7cfb\u7edf
p543
I707
sV\u51b6\u91d1\u5de5\u7a0b
p544
I470
sV\u6d4b\u7ed8\u5de5\u7a0b
p545
I424
sV\u8d22\u52a1\u4fe1\u606f\u7ba1\u7406
p546
I73
sV\u4fe1\u606f\u5bf9\u6297\u6280\u672f
p547
I627
sV\u7269\u7406\u5b66
p548
I528
sV\u822a\u6d77\u6280\u672f
p549
I214
sV\u97e9\u56fd\u8bed
p550
I357
sV\u4ea4\u901a\u8fd0\u8f93
p551
I305
sV\u793e\u4f1a\u5b66
p552
I584
sV\u98de\u884c\u5668\u52a8\u529b\u5de5\u7a0b
p553
I653
sV\u7a0e\u52a1
p554
I373
sV\u7ecf\u6d4e\u4fe1\u606f\u7ba1\u7406
p555
I175
sV\u7ba1\u7406\u79d1\u5b66\u4e0e\u5de5\u7a0b
p556
I685
sV\u6570\u63a7\u6280\u672f\u5e94\u7528
p557
I131
sV\u4ea7\u54c1\u8d28\u91cf\u5de5\u7a0b
p558
I425
sV\u673a\u7535
p559
I132
sV\u5730\u7406\u79d1\u5b66
p560
I507
sV\u8ba1\u7b97\u673a\u79d1\u5b66\u4e0e\u6280\u672f
p561
I488
sV\u673a\u7535\u4e00\u4f53
p562
I60
sV\u6750\u6599\u52a0\u5de5\u5de5\u7a0b
p563
I694
sV\u751f\u6001\u5b66
p564
I679
sV\u601d\u60f3\u653f\u6cbb\u6559\u80b2
p565
I545
sV\u6c7d\u8f66\u68c0\u6d4b\u4e0e\u7ef4\u4fee\u6280\u672f
p566
I123
sV\u79d8\u4e66\u5b66
p567
I534
sV\u963f\u62c9\u4f2f\u8bed
p568
I473
sV\u6c49\u8bed\u8a00\u6587\u5b66\u6559\u80b2
p569
I302
sV\u5de5\u827a\u7f8e\u672f
p570
I231
sV\u7535\u6c14\u5de5\u7a0b\u53ca\u81ea\u52a8\u5316
p571
I562
sV\u5f71\u89c6\u52a8\u753b
p572
I312
sV\u8ba1\u7b97\u673a\u8f6f\u4ef6\u5f00\u53d1
p573
I243
sV\u8d22\u52a1\u4f1a\u8ba1\u6559\u80b2
p574
I206
sV\u7535\u5b50\u5546\u52a1\u4e13\u4e1a
p575
I324
sV\u7535\u8111
p576
I109
sV\u9500\u552e\u7ba1\u7406
p577
I418
sV\u4fdd\u9669
p578
I526
sV\u7eba\u7ec7\u5de5\u7a0b
p579
I344
sV\u6570\u7406\u57fa\u7840\u79d1\u5b66
p580
I247
sV\u56fd\u6c11\u7ecf\u6d4e\u7ba1\u7406
p581
I389
sV\u7535\u5b50\u7ef4\u4fee
p582
I74
sV\u8ba1\u7b97\u673a\u8f6f\u4ef6
p583
I310
sV\u91d1\u878d\u6570\u5b66
p584
I677
sV\u5de5\u4e1a\u4f1a\u8ba1
p585
I198
sV\u8d22\u4f1a\u4e13\u4e1a
p586
I224
sV\u8d38\u6613\u7ecf\u6d4e
p587
I334
sV\u8f6f\u4ef6\u6280\u672f
p588
I110
sV\u7f51\u7edc\u8425\u9500
p589
I75
sV\u623f\u5730\u4ea7\u7ecf\u8425\u7ba1\u7406
p590
I365
sV\u5e02\u573a\u8425\u9500\u4e13\u4e1a
p591
I319
sV\u8ba1\u7b97\u673a\u53ca\u5176\u5e94\u7528
p592
I262
sV\u5de5\u7a0b\u529b\u5b66
p593
I368
sV\u6ce8\u518c\u4f1a\u8ba1\u5e08\u65b9\u5411
p594
I170
sV\u4f53\u80b2
p595
I76
sV\u8ba1\u7b97\u673a\u7cfb
p596
I244
sV\u673a\u68b0\u8bbe\u8ba1\u53ca\u5176\u81ea\u52a8\u5316
p597
I535
sV\u6559\u80b2\u7ba1\u7406
p598
I493
sV\u516c\u5171\u5b89\u5168\u7ba1\u7406
p599
I89
sV\u8d22\u52a1\u7ba1\u7406
p600
I521
sV\u5e7f\u544a\u8bbe\u8ba1\u4e0e\u5236\u4f5c
p601
I124
sV\u533b\u9662\u836f\u5b66
p602
I303
sV\u56fd\u9645\u8d38\u6613\u5b66
p603
I708
sV\u623f\u5730\u4ea7\u7ecf\u8425\u4e0e\u4f30\u4ef7
p604
I77
sV\u5fae\u7535\u5b50
p605
I628
sV\u8bed\u8a00\u6587\u5b66\u7c7b \u82f1\u8bed
p606
I478
sV\u4f53\u80b2\u6559\u80b2
p607
I432
sV\u6cd5\u5f8b
p608
I394
sV\u7269\u6d41
p609
I193
sV\u5e94\u7528\u7535\u5b50\u4e13\u4e1a
p610
I51
sV\u7535\u5b50\u4fe1\u606f\u5de5\u7a0b
p611
I468
sV\u8bc1\u5238\u6295\u8d44\u4e0e\u7ba1\u7406
p612
I192
sVEMBA
p613
I686
sV\u5efa\u7b51\u73af\u5883\u4e0e\u8bbe\u5907\u5de5\u7a0b
p614
I479
sV\u5e94\u7528\u82f1\u8bed
p615
I292
sV\u7ba1\u7406\u5de5\u7a0b
p616
I629
sV\u6c7d\u4fee
p617
I79
sV\u8ba1\u7b97\u673a\u901a\u4fe1
p618
I171
sV\u5de5\u4e1a\u81ea\u52a8\u5316
p619
I566
sV\u516c\u5171\u5173\u7cfb\u5b66
p620
I361
sV\u91d1\u878d\u5b66
p621
I575
sV\u7f16\u8f91\u51fa\u7248\u5b66
p622
I463
sV\u5386\u53f2
p623
I14
sV\u5ba1\u8ba1\u5b66
p624
I587
sV\u7535\u5b50\u7535\u5668
p625
I118
sV\u7ecf\u6d4e\u4fe1\u606f\u7ba1\u7406\u4e0e\u8ba1\u7b97\u673a\u5e94\u7528
p626
I113
sV\u5546\u52a1\u82f1\u8bed
p627
I246
sV\u8ba1\u7b97\u673a\u8f85\u52a9\u8bbe\u8ba1
p628
I17
sV\u7ecf\u8425\u7ba1\u7406
p629
I508
sV\u91d1\u878d\u4e0e\u8bc1\u5238
p630
I298
sV\u5efa\u7b51\u5de5\u7a0b\u6280\u672f
p631
I140
sV\u8ba1\u7b97\u673a\u6559\u80b2
p632
I161
sV\u5efa\u7b51\u5de5\u7a0b\u7ba1\u7406
p633
I210
sV\u5e7f\u64ad\u7535\u89c6\u65b0\u95fb
p634
I474
sV\u7535\u5b50\u4fe1\u606f\u7c7b \u81ea\u52a8\u5316
p635
I550
sV\u5de5\u5546\u7ba1\u7406\u7c7b \u4f1a\u8ba1\u5b66
p636
I540
sV\u7535\u8111\u827a\u672f\u8bbe\u8ba1
p637
I81
sV\u91c7\u8d2d\u4f9b\u5e94\u7ba1\u7406
p638
I314
sV\u73af\u5883\u79d1\u5b66
p639
I541
sV\u96c6\u6210\u7535\u8def\u8bbe\u8ba1\u4e0e\u96c6\u6210\u7cfb\u7edf
p640
I494
sV\u5e94\u7528\u5316\u5b66
p641
I537
sV\u901a\u8baf\u5de5\u7a0b
p642
I279
sV\u56fd\u9645\u91d1\u878d
p643
I415
sV\u836f\u7406\u5b66\u7cfb
p644
I82
sV\u73b0\u4ee3\u6559\u80b2\u6280\u672f
p645
I83
sV\u6570\u5b66
p646
I551
sV\u54f2\u5b66
p647
I674
sV\u5e7f\u64ad\u7535\u89c6\u5de5\u7a0b
p648
I449
sV\u8d22\u52a1\u4f1a\u8ba1\u4e13\u4e1a
p649
I172
sV\u8ba1\u7b97\u673a\u8f6f\u4ef6\u5e94\u7528
p650
I406
sV\u751f\u7269\u5316\u5de5
p651
I669
sV\u6c49\u8bed\u8a00\u6587\u5b66
p652
I475
sV\u4f9b\u70ed\u901a\u98ce\u4e0e\u7a7a\u8c03\u5de5\u7a0b
p653
I280
sV\u7ecf\u8d38\u82f1\u8bed
p654
I467
sV\u5546\u8d38\u82f1\u8bed
p655
I455
sV\u7ecf\u6d4e\u6cd5\u5f8b\u4e8b\u52a1
p656
I219
sV\u8d22\u653f\u91d1\u878d
p657
I359
sV\u7535\u6c14\u81ea\u52a8\u5316
p658
I239
sV\u5730\u8d28\u5b66
p659
I412
sV\u7535\u5b50\u4fe1\u606f\u7c7b \u8ba1\u7b97\u673a\u79d1\u5b66\u4e0e\u6280\u672f
p660
I480
sV\u821e\u8e48\u5b66
p661
I407
sV\u5316\u5b66\u5de5\u7a0b
p662
I667
sV\u65c5\u6e38\u82f1\u8bed
p663
I107
sV\u8ba1\u7b97\u673a\u79d1\u5b66\u4e0e\u5e94\u7528
p664
I316
sV\u673a\u68b0\u7535\u5b50
p665
I631
sV\u7ecf\u6d4e\u7ba1\u7406
p666
I339
sV\u673a\u68b0\u8bbe\u8ba1\u5236\u9020\u53ca\u81ea\u52a8\u5316
p667
I632
sV\u5211\u4e8b\u79d1\u5b66\u6280\u672f
p668
I281
sV\u591a\u5a92\u4f53\u8bbe\u8ba1\u4e0e\u5236\u4f5c
p669
I84
sV\u710a\u63a5\u5de5\u827a\u53ca\u8bbe\u5907
p670
I360
sV\u4f9b\u7528\u7535\u6280\u672f
p671
I85
sV\u9ad8\u5206\u5b50\u6750\u6599\u5de5\u7a0b
p672
I641
sV\u56fd\u9645\u5546\u52a1\u82f1\u8bed
p673
I395
sV\u8ba1\u7b97\u673a\u8f6f\u4ef6\u4e0e\u7406\u8bba
p674
I709
sV\u68ee\u6797\u8d44\u6e90\u4fdd\u62a4\u4e0e\u6e38\u61a9
p675
I633
sV\u516c\u5171\u4e8b\u4e1a\u7ba1\u7406
p676
I574
sV\u6c7d\u8f66\u7535\u5b50\u6280\u672f
p677
I156
sV\u673a\u68b0\u5236\u9020\u53ca\u81ea\u52a8\u5316
p678
I642
sV\u8ba1\u7b97\u673a\u4fe1\u606f\u4e0e\u7ba1\u7406
p679
I173
sV\u4ea7\u4e1a\u7ecf\u6d4e\u5b66
p680
I710
sV\u5168\u79d1
p681
I86
sV\u6280\u672f\u7ecf\u6d4e\u53ca\u7ba1\u7406
p682
I711
sV\u7535\u5b50\u5e94\u7528
p683
I87
sV\u56ed\u6797\u8bbe\u8ba1
p684
I275
sV\u673a\u68b0\u8bbe\u8ba1\u53ca\u81ea\u52a8\u5316
p685
I542
sV\u8239\u8236\u4e0e\u6d77\u6d0b\u5de5\u7a0b
p686
I342
sV\u91d1\u878d\u7ba1\u7406\u4e0e\u5b9e\u52a1
p687
I196
sV\u56ed\u827a
p688
I436
sV\u4f1a\u8ba1\u7535\u7b97\u5316\u4e13\u4e1a
p689
I88
sV\u5386\u53f2\u6559\u80b2
p690
I278
sV\u91d1\u5c5e\u6750\u6599\u5de5\u7a0b
p691
I635
sV\u827a\u672f\u6559\u80b2
p692
I306
sV\u6c7d\u8f66\u68c0\u6d4b\u4e0e\u7ef4\u4fee
p693
I92
sV\u8d8a\u5357\u8bed
p694
I282
sV\u5386\u53f2\u5b66
p695
I477
sV\u5efa\u7b51\u5de5\u7a0b
p696
I369
sV\u8d22\u52a1\u4f1a\u8ba1
p697
I255
sV\u6559\u80b2\u6280\u672f\u5b66
p698
I594
sV\u63a7\u5236\u79d1\u5b66\u4e0e\u5de5\u7a0b
p699
I703
sV\u673a\u7535\u5de5\u7a0b
p700
I254
sV\u8349\u4e1a\u79d1\u5b66
p701
I634
sV\u56fd\u9645\u8d38\u6613\u4e0e\u5b9e\u52a1
p702
I220
sV\u751f\u7269\u5316\u5b66\u7cfb
p703
I671
sV\u5de5\u7a0b\u9020\u4ef7
p704
I232
sVBusiness Administration
p705
I684
sV\u6750\u6599\u5316\u5b66
p706
I640
sV\u8f7b\u5316\u5de5\u7a0b
p707
I520
sV\u793e\u4f1a\u4fdd\u969c
p708
I675
sV\u6a21\u5177\u8bbe\u8ba1\u4e0e\u5236\u9020
p709
I125
sV\u6570\u63a7
p710
I91
sV\u8d44\u4ea7\u8bc4\u4f30\u4e0e\u7ba1\u7406
p711
I194
sV\u516c\u5171\u5173\u7cfb
p712
I331
sV\u7269\u7406
p713
I283
s.