c__builtin__
set
p0
((lp1
V\u9879\u76ee\u7ecf\u7406
p2
aV\u6280\u672f\u652f\u6301
p3
aV\u4eba\u529b\u8d44\u6e90
p4
aV\u5f00\u53d1\u5de5\u7a0b\u5e08
p5
aV\u5ba2\u670d
p6
aV\u9500\u552e
p7
aV\u4f1a\u8ba1
p8
aV\u540e\u52e4
p9
aV\u7269\u6d41
p10
aV\u8d28\u91cf
p11
aV\u6d4b\u8bd5
p12
aV\u8fd0\u8425
p13
aV\u751f\u4ea7
p14
aV\u91c7\u8d2d
p15
aV\u673a\u68b0
p16
aV\u5e02\u573a
p17
aV\u8d22\u52a1
p18
atp19
Rp20
.