(dp0
V\u7ecf\u7406
p1
c__builtin__
set
p2
((lp3
V\u7ebf\u957f
p4
aV\u8d1f\u8d23\u4eba
p5
aV\u90e8\u957f
p6
aV\u8bfe\u957f
p7
aV\u4e3b\u4efb
p8
aV\u7ecf\u7406
p9
aV\u9ad8\u7ea7\u4e1a\u52a1\u8ddf\u5355
p10
aVHRVP
p11
aV\u79d1\u957f
p12
aV\u7ec4\u957f
p13
aV\u4e3b\u7ba1
p14
aV\u4ee3\u8868
p15
aV\u9500\u552e\u4e3b\u7ba1
p16
aV\u73ed\u957f
p17
aV\u8d44\u6df1
p18
aV\u5904\u957f
p19
atp20
Rp21
sV\u603b\u76d1
p22
g2
((lp23
VCMO
p24
aV\u603b\u76d1
p25
aV\u5927\u533a\u7ecf\u7406
p26
aV\u9996\u5e2d
p27
aV\u603b\u88c1
p28
aV\u526f\u603b
p29
aV\u5382\u957f
p30
aVCOO
p31
aV\u603b\u7ecf\u7406
p32
atp33
Rp34
sV\u4e13\u5458
p35
g2
((lp36
VHRBP
p37
aV\u4e13\u5458
p38
aV\u52a9\u624b
p39
aV\u6587\u5458
p40
aV\u5b9e\u4e60\u751f
p41
aVHRD
p42
aV\u52a9\u7406
p43
atp44
Rp45
s.