c__builtin__
set
p0
((lp1
V\u7ebf\u957f
p2
aV\u8d1f\u8d23\u4eba
p3
aV\u90e8\u957f
p4
aV\u8bfe\u957f
p5
aV\u4e3b\u4efb
p6
aV\u7ecf\u7406
p7
aV\u9ad8\u7ea7\u4e1a\u52a1\u8ddf\u5355
p8
aVHRVP
p9
aV\u79d1\u957f
p10
aV\u7ec4\u957f
p11
aV\u4e3b\u7ba1
p12
aV\u4ee3\u8868
p13
aV\u9500\u552e\u4e3b\u7ba1
p14
aV\u73ed\u957f
p15
aV\u8d44\u6df1
p16
aV\u5904\u957f
p17
atp18
Rp19
.