(dp0
V\u9879\u76ee\u7ecf\u7406
p1
c__builtin__
set
p2
((lp3
V\u9879\u76ee\u7ecf\u7406
p4
aV\u9879\u76ee\u8d1f\u8d23\u4eba
p5
aV\u9879\u76ee\u7ba1\u7406
p6
aV\u9879\u76ee\u603b\u76d1
p7
aV\u9879\u76ee\u90e8\u7ecf\u7406
p8
aV\u9879\u76ee\u4e3b\u7ba1
p9
atp10
Rp11
sV\u6280\u672f\u652f\u6301
p12
g2
((lp13
V
p14
aV\u6280\u672f\u652f\u6301
p15
aV\u552e\u524d
p16
aV\u552e\u540e
p17
aV\u4fe1\u606f\u6280\u672f
p18
aVIT\u4e1a\u52a1\u652f\u6301
p19
aVIT\u5de5\u7a0b\u5e08
p20
aVIT\u6280\u672f
p21
aVIT\u8fd0\u7ef4
p22
aV\u7cfb\u7edf\u96c6\u6210
p23
aV\u7f51\u7edc\u5de5\u7a0b\u5e08
p24
aVIT\u4e13\u5458
p25
aVIT\u9879\u76ee\u6267\u884c
p26
aVIT\u90e8
p27
aV\u7ef4\u4fee\u5de5\u7a0b\u5e08
p28
aV\u7ef4\u62a4
p29
aV\u7f51\u7edc\u7ba1\u7406\u5458
p30
aV\u6280\u672f\u5de5\u7a0b\u5e08
p31
aV\u7cfb\u7edf\u5de5\u7a0b\u5e08
p32
atp33
Rp34
sV\u4eba\u529b\u8d44\u6e90
p35
g2
((lp36
VHRBP
p37
aV\u4eba\u529b
p38
aV\u4eba\u4e8b\u90e8
p39
aV\u4eba\u529b\u8d44\u6e90
p40
aV\u85aa\u916c\u798f\u5229
p41
aV\u4eba\u4e8b
p42
aVHR
p43
aV\u62db\u8058
p44
aVHRVP
p45
aV\u4eba\u529b\u8d44\u6e90\u90e8
p46
aV\u62db\u8058\u90e8
p47
aV\u7ee9\u6548
p48
aV\u85aa\u8d44\u798f\u5229\u90e8
p49
aV\u4eba\u529b\u90e8
p50
aV\u85aa\u8d44\u798f\u5229
p51
aVHRD
p52
aV\u85aa\u8d44
p53
aV\u884c\u653f
p54
aV\u884c\u653f\u90e8
p55
aV\u730e\u5934
p56
aV\u85aa\u8d44\u90e8
p57
atp58
Rp59
sV\u8d22\u52a1
p60
g2
((lp61
V\u5ba1\u8ba1
p62
aVCFO
p63
aV\u8d22\u52a1
p64
aV\u8d22\u52a1\u90e8
p65
aV\u7a0e\u52a1
p66
atp67
Rp68
sV\u5ba2\u670d
p69
g2
((lp70
V\u5ba2\u670d
p71
aV\u5ba2\u670d\u90e8
p72
aV\u547c\u53eb\u4e2d\u5fc3
p73
aV\u5ba2\u6237\u670d\u52a1
p74
aV\u987e\u5ba2\u670d\u52a1
p75
aV\u5bbe\u5ba2\u670d\u52a1
p76
atp77
Rp78
sV\u9500\u552e
p79
g2
((lp80
g14
aV\u5546\u54c1\u9500\u552e
p81
aV\u4fc3\u9500
p82
aV\u5206\u9500
p83
aV\u9500\u552e\u4e1a\u52a1
p84
aV\u9500\u552e
p85
aV\u5e97\u52a9
p86
aV\u6e20\u9053
p87
aV\u5bfc\u8d2d\u5458
p88
aV\u4ea7\u54c1\u9500\u552e
p89
aV\u4ea7\u54c1\u9500\u552e\u90e8
p90
aV\u9500\u552e\u4e3b\u7ba1
p91
aV\u9500\u552e\u5458
p92
aV\u7f6e\u4e1a
p93
aV\u5ba2\u6237
p94
aV\u4e1a\u52a1\u5458
p95
aV\u9500\u552e\u4e1a\u52a1\u8ddf\u5355
p96
aV\u5bfc\u8d2d
p97
aV\u7b14\u8bd1\u5458
p98
aV\u7535\u9500
p99
aV\u9500\u552e\u90e8
p100
aV\u5927\u533a\u7ecf\u7406
p101
aV\u533a\u57df
p102
aVBD
p103
atp104
Rp105
sV\u4f1a\u8ba1
p106
g2
((lp107
V\u4f1a\u8ba1\u90e8
p108
aV\u4f1a\u8ba1\u5e08
p109
aV\u51fa\u7eb3\u5458
p110
aV\u4f1a\u8ba1\u6838\u7b97
p111
aV\u4f1a\u8ba1
p112
aV\u73b0\u91d1\u4f1a\u8ba1
p113
aV\u8d44\u91d1\u4e13\u5458
p114
aV\u603b\u8d26
p115
aV\u4f1a\u8ba1\u5458
p116
aV\u6210\u672c
p117
aV\u51fa\u7eb3
p118
atp119
Rp120
sV\u673a\u68b0\u5de5\u7a0b\u5e08
p121
g2
((lp122
V\u88c5\u914d
p123
aV\u5939\u5177\u5de5\u7a0b\u5e08
p124
aV\u673a\u4fee\u5de5
p125
aV\u673a\u7535\u5de5\u7a0b\u5e08
p126
aV\u673a\u68b0\u5de5\u7a0b\u5e08
p127
aV\u6a21\u5177
p128
aV\u673a\u68b0
p129
atp130
Rp131
sV\u540e\u52e4
p132
g2
((lp133
V\u540e\u52e4\u90e8
p134
aV\u540e\u52e4
p135
atp136
Rp137
sV\u7269\u6d41
p138
g2
((lp139
V\u8fdb\u51fa\u53e3
p140
aV\u7269\u6d41\u90e8
p141
aV\u8d27\u8fd0
p142
aV\u4ed3\u5e93
p143
aV\u50a8\u8fd0
p144
aV\u8fd0\u8f93
p145
aV\u901f\u9012
p146
aV\u5feb\u9012
p147
aV\u4ed3\u50a8
p148
aV\u53d1\u8d27
p149
aV\u7269\u6d41
p150
aV\u5e93\u623f\u7ba1\u7406
p151
aV\u50a8\u5907
p152
atp153
Rp154
sV\u5e02\u573a
p155
g2
((lp156
VCMO
p157
aV\u6d3b\u52a8\u7b56\u5212
p158
aV\u8425\u9500\u90e8
p159
aV\u8425\u9500\u7b56\u5212
p160
aV\u5e02\u573a\u5f00\u53d1\u90e8
p161
aV\u54c1\u724c
p162
aV\u8425\u9500
p163
aV\u4f01\u5212
p164
aV\u6587\u6848\u7b56\u5212
p165
aV\u5e02\u573a
p166
aV\u5e02\u573a\u90e8
p167
atp168
Rp169
sV\u5f00\u53d1\u5de5\u7a0b\u5e08
p170
g2
((lp171
V\u6e38\u620f\u8bbe\u8ba1
p172
aV\u8f6f\u4ef6\u5f00\u53d1
p173
aV\u540e\u7aef
p174
aV\u8f6f\u4ef6\u5de5\u7a0b\u5e08
p175
aV\u6e38\u620f\u5f00\u53d1
p176
aV\u7535\u5b50\u6280\u672f
p177
aV\u5d4c\u5165\u5f0f
p178
aV\u7a0b\u5e8f\u5458
p179
aV\u7814\u53d1\u6280\u672f\u5458
p180
aV\u7535\u5b50\u5de5\u7a0b\u5e08
p181
aV\u5f00\u53d1\u5de5\u7a0b\u5e08
p182
aV\u786c\u4ef6\u5f00\u53d1
p183
aV\u4e3b\u7a0b
p184
aV\u786c\u4ef6\u5de5\u7a0b\u5e08
p185
aV\u7814\u53d1\u5458
p186
aV\u7814\u53d1\u5de5\u7a0b\u5e08
p187
aV\u524d\u7aef
p188
atp189
Rp190
sV\u8fd0\u8425
p191
g2
((lp192
V\u7535\u5b50\u5546\u52a1
p193
aV\u4e3b\u7f16
p194
aV\u526f\u4e3b\u7f16
p195
aV\u8fd0\u8425\u90e8
p196
aV\u8fd0\u8425
p197
aVSEO
p198
aV\u8fd0\u8425\u5546
p199
aVSEM
p200
aVCOO
p201
atp202
Rp203
sV\u751f\u4ea7
p204
g2
((lp205
V\u5236\u9020
p206
aV\u8f66\u95f4
p207
aV\u751f\u4ea7\u90e8
p208
aVPMC
p209
aV\u666e\u5de5
p210
aV\u751f\u7ba1\u5458
p211
aV\u751f\u4ea7\u7ebf
p212
aV\u5de5\u827a
p213
aV\u751f\u4ea7
p214
aV\u5382\u957f
p215
aV\u751f\u6280\u90e8
p216
aV\u751f\u7ba1
p217
aV\u751f\u6280
p218
atp219
Rp220
sV\u91c7\u8d2d
p221
g2
((lp222
V\u4ed3\u7ba1\u517c\u53f8\u673a
p223
aVSCM
p224
aV\u91c7\u8d2d\u90e8
p225
aV\u8d44\u6750\u62c5\u5f53
p226
aV\u4e1a\u52a1\u8ddf\u5355
p227
aV\u4f9b\u5e94\u5546
p228
aV\u9ad8\u7ea7\u4e1a\u52a1\u8ddf\u5355
p229
aV\u4f9b\u5e94\u94fe
p230
aV\u8ddf\u5355\u5458
p231
aV\u8ddf\u5355
p232
aV\u8d2d\u4e70\u62c5\u5f53
p233
aV\u91c7\u8d2d
p234
aV\u6838\u4ef7
p235
atp236
Rp237
sV\u8d28\u91cf(QA/QC)
p238
g2
((lp239
V\u8d28\u91cf\u76d1\u7763\u5458
p240
aVQA
p241
aVPQC
p242
aVIQC
p243
aV\u54c1\u8d28
p244
aVCQA
p245
aVIPQC
p246
aV\u8d28\u91cf\u4fdd\u8bc1
p247
aV\u68c0\u9a8c
p248
aV\u6d4b\u8bd5\u4e3b\u7ba1
p249
aVQC
p250
aVOQC
p251
aV\u8d28\u91cf
p252
aVFQC
p253
aVQAL
p254
aVSQA
p255
aVVQA
p256
aVSQE
p257
atp258
Rp259
sV\u8f6f\u4ef6\u6d4b\u8bd5
p260
g2
((lp261
V\u81ea\u52a8\u6d4b\u8bd5
p262
aV\u68c0\u9a8c\u6d4b\u8bd5
p263
aV\u6d4b\u8bd5\u5de5\u7a0b\u5e08
p264
aV\u6d4b\u8bd5
p265
aV\u8f6f\u4ef6\u6d4b\u8bd5
p266
atp267
Rp268
s.