c__builtin__
set
p0
((lp1
V\u4eba\u529b\u8d44\u6e90
p2
aV\u5ba2\u670d
p3
aV\u9500\u552e
p4
aV\u540e\u52e4
p5
aV\u7269\u6d41
p6
aV\u8fd0\u8425
p7
aV\u751f\u4ea7
p8
aV\u91c7\u8d2d
p9
aV\u5e02\u573a
p10
atp11
Rp12
.