c__builtin__
set
p0
((lp1
V\u9879\u76ee\u7ecf\u7406
p2
aV\u6280\u672f\u652f\u6301
p3
aV\u8d22\u52a1
p4
aV\u4f1a\u8ba1
p5
aV\u673a\u68b0\u5de5\u7a0b\u5e08
p6
aV\u5f00\u53d1\u5de5\u7a0b\u5e08
p7
aV\u8d28\u91cf(QA/QC)
p8
aV\u8f6f\u4ef6\u6d4b\u8bd5
p9
atp10
Rp11
.