(dp0
V\u62db\u5546\u526f\u603b
p1
V\u8fd0\u8425\u7ecf\u7406
p2
sV\u539f\u753b\u8bbe\u8ba1\u5e08
p3
V\u5e02\u573a\u7ecf\u7406
p4
sV\u5efa\u7b51\u5de5\u7a0b\u5e08
p5
V\u9879\u76ee\u7ecf\u7406
p6
sV\u4fdd\u5b89\u4e3b\u7ba1
p7
V\u540e\u52e4\u4e3b\u7ba1
p8
sV\u5e73\u53f0\u957f
p9
V\u9879\u76ee\u7ecf\u7406
p10
sV\u9ad8\u7ea7\u62db\u5546\u7ecf\u7406
p11
V\u9500\u552e\u7ecf\u7406
p12
sV\u8d44\u6e90\u6574\u5408\u8fd0\u7528\u8bfe\u8bfe\u957f
p13
V\u8d28\u91cf(QA/QC)
p14
sV\u5916\u62d3\u52a9\u7406
p15
V\u9500\u552e\u4e13\u5458
p16
sV\u7968\u52a1\u4eba\u5458
p17
V\u9500\u552e\u4e13\u5458
p18
sV\u4ea7\u5b66\u7814\u7a76\u90e8\u5b9e\u4e60\u751f
p19
V\u4eba\u529b\u8d44\u6e90\u4e13\u5458
p20
sV\u7535\u8def\u5de5\u7a0b\u5e08CAM
p21
V\u8d28\u91cf(QA/QC)
p22
sV\u5546\u52a1\u53f8\u673a\u53ca\u603b\u7ecf\u7406\u53f8\u673a
p23
V\u9500\u552e\u7ecf\u7406
p24
sV\u5fb7\u9633\u5206\u516c\u53f8\u7ecf\u7406
p25
V\u9500\u552e\u7ecf\u7406
p26
sV\u9ad8\u538b\u7535\u5de5
p27
V\u5ba2\u670d\u7ecf\u7406
p28
sV\u666e\u67e5\u5458
p29
V\u4eba\u529b\u8d44\u6e90\u4e13\u5458
p30
sV\u6280\u672f\u526f\u603b
p31
V\u9879\u76ee\u7ecf\u7406
p32
sV\u7535\u6c14\u5de5\u7a0b\u5e08
p33
V\u5f00\u53d1\u5de5\u7a0b\u5e08
p34
sV\u4e2a\u4eba\u91d1\u878d\u4ea7\u54c1\u90e8\u5b9e\u4e60\u751f
p35
V\u8d22\u52a1
p36
sV\u9a8c\u6536\u5de5\u7a0b\u5e08
p37
V\u9879\u76ee\u7ecf\u7406
p38
sV\u8d27\u54c1\u52a9\u7406
p39
V\u91c7\u8d2d\u52a9\u7406
p40
sV\u88c5\u5907\u90e8\u7ecf\u7406
p41
V\u8d28\u91cf(QA/QC)
p42
sV\u4ea7\u54c1\u7763\u5bfc
p43
V\u5ba2\u670d
p44
sV\u6570\u636e\u901a\u4fe1\u5de5\u7a0b\u5e08
p45
V\u6280\u672f\u652f\u6301
p46
sV\u6570\u636e\u5206\u6790\u9ad8\u7ea7\u52a9\u7406
p47
V\u4eba\u529b\u8d44\u6e90\u4e13\u5458
p48
sV\u79d1\u6280\u4e0e\u5408\u4f5c\u7ba1\u7406
p49
V\u4f1a\u8ba1
p50
sV\u8d44\u6df1\u7406\u8d22\u7ecf\u7406
p51
V\u9500\u552e\u603b\u76d1
p52
sV\u65e0\u6e90\u4ea7\u54c1\u7ecf\u7406
p53
V\u751f\u4ea7\u4e13\u5458
p54
sV\u5206\u6790\u6280\u672f\u5458
p55
V\u6280\u672f\u652f\u6301
p56
sV\u8bbe\u8ba1\u5de5\u7a0b\u5e08\u52a9\u7406
p57
V\u673a\u68b0\u5de5\u7a0b\u5e08
p58
sV\u7535\u8111\u7ef4\u4fee\u4eba\u5458
p59
V\u6280\u672f\u652f\u6301
p60
sV\u57fa\u7840\u67b6\u6784\u5de5\u7a0b\u5e08
p61
V\u6280\u672f\u652f\u6301
p62
sV\u8d44\u6750\u79d1\u957f
p63
V\u7269\u6d41\u7ecf\u7406
p64
sV\u56fd\u5bb6\u5206\u516c\u53f8\u7ecf\u7406
p65
V\u5e02\u573a\u7ecf\u7406
p66
sV\u9ad8\u7ea7\u6295\u8d44\u5206\u6790\u7ecf\u7406
p67
V\u8d22\u52a1
p68
sV\u5bb4\u4f1a\u5385\u90e8\u957f
p69
V\u4eba\u529b\u8d44\u6e90\u7ecf\u7406
p70
sV\u8d22\u8d44\u90e8\u526f\u7ecf\u7406
p71
V\u8d22\u52a1
p72
sV\u8ba1\u8d22\u90e8\u603b\u76d1
p73
V\u8d22\u52a1
p74
sV\u7ebf\u5207\u5272\u64cd\u4f5c\u8005
p75
V\u673a\u68b0\u5de5\u7a0b\u5e08
p76
sV\u5317\u4eac\u5206\u516c\u53f8\u90e8\u95e8\u52a9\u7406\u7ecf\u7406
p77
V\u4eba\u529b\u8d44\u6e90\u4e13\u5458
p78
sV\u62db\u6295\u6807\u4e13\u5458
p79
V\u9500\u552e\u7ecf\u7406
p80
sV\u65c5\u884c\u987e\u95ee
p81
V\u5ba2\u670d
p82
sV\u57ce\u7ba1\u961f\u5458
p83
V\u540e\u52e4\u4e13\u5458
p84
sV\u4f20\u5a92\u603b\u76d1
p85
V\u8fd0\u8425\u603b\u76d1
p86
sV\u5e97\u957f\u517c\u8bb2\u89e3\u5458
p87
V\u5ba2\u670d
p88
sV\u8d44\u6df1\u7b56\u5212\u7ecf\u7406
p89
V\u8fd0\u8425\u4e13\u5458
p90
sV\u5ba4\u5185\u8bbe\u8ba1\u5458
p91
V\u9500\u552e\u603b\u76d1
p92
sV\u517c\u804c\u6536\u94f6\u5458
p93
V\u4f1a\u8ba1
p94
sV\u7cfb\u7edf\u67b6\u6784\u5e08
p95
V\u6280\u672f\u652f\u6301
p96
sV\u7cfb\u7edf\u5b9e\u65bd\u5de5\u7a0b\u5e08
p97
V\u6280\u672f\u652f\u6301
p98
sVLED\u7535\u5b50\u52a9\u7406\u5de5\u7a0b\u5e08
p99
V\u5f00\u53d1\u5de5\u7a0b\u5e08
p100
sV\u603b\u5de5\u3001\u6280\u672f\u8d1f\u8d23\u4eba
p101
V\u9879\u76ee\u7ecf\u7406
p102
sV\u7269\u4e1a\u7ef4\u4fee\u5f3a\u5f31\u7535
p103
V\u8fd0\u8425\u4e13\u5458
p104
sV\u8f6f\u4ef6\u67b6\u6784\u5e08
p105
V\u9879\u76ee\u7ecf\u7406
p106
sV\u96c6\u56e2IT\u7ecf\u7406
p107
V\u9879\u76ee\u7ecf\u7406
p108
sV\u90e8\u95e8\u526f\u603b\u7ecf\u7406
p109
V\u8d22\u52a1
p110
sV\u7535\u5546\u6587\u5458
p111
V\u5ba2\u670d
p112
sV\u57df\u540d\u7ecf\u7eaa\u4eba
p113
V\u9500\u552e\u7ecf\u7406
p114
sV\u4f01\u7ba1\u90e8\u90e8\u957f
p115
V\u4eba\u529b\u8d44\u6e90\u7ecf\u7406
p116
sV\u5546\u4e1a\u4e8b\u4e1a\u90e8\u603b\u76d1
p117
V\u9500\u552e\u7ecf\u7406
p118
sV\u65e5\u5316\u4e3b\u7ba1
p119
V\u7269\u6d41\u4e13\u5458
p120
sV\u8d22\u4f1a\u79d1\u79d1\u957f
p121
V\u8d22\u52a1
p122
sV\u56e2\u8d2d\u90e8\u95e8\u4e3b\u7ba1
p123
V\u9500\u552e\u603b\u76d1
p124
sV\u98de\u673a\u4e8b\u52a1\u7ba1\u7406
p125
V\u9500\u552e\u7ecf\u7406
p126
sV\u4e2d\u7ea7\u8d44\u4ea7\u6838\u7b97\u4e13\u5458
p127
V\u4f1a\u8ba1
p128
sV\u7406\u5316\u5206\u6790
p129
V\u8f6f\u4ef6\u6d4b\u8bd5
p130
sV\u4e92\u8054\u7f51\u4ea7\u54c1\u7ecf\u7406
p131
V\u6280\u672f\u652f\u6301
p132
sV\u9a7e\u6821\u4ee3\u7406\u62db\u751f
p133
V\u9500\u552e\u7ecf\u7406
p134
sVBI\u987e\u95ee
p135
V\u9879\u76ee\u7ecf\u7406
p136
sV\u6536\u94f6\u5ba4\u7ecf\u7406
p137
V\u4f1a\u8ba1
p138
sV\u6280\u672f\u526f\u79d1\u957f
p139
V\u673a\u68b0\u5de5\u7a0b\u5e08
p140
sV\u6210\u672c\u6838\u7b97\u4e13\u5458
p141
V\u4f1a\u8ba1
p142
sV\u65e0\u7ebf\u5a92\u4ecb
p143
V\u8fd0\u8425\u4e13\u5458
p144
sV\u5927\u5ba2\u6237\u90e8\u4e3b\u7ba1
p145
V\u9500\u552e\u4e13\u5458
p146
sV\u8425\u4e1a\u5458/\u6536\u94f6\u5458
p147
V\u5ba2\u670d\u7ecf\u7406
p148
sV\u6838\u5fc3\u4ea7\u54c1\u5206\u6790\u5e08
p149
V\u5e02\u573a\u7ecf\u7406
p150
sV\u4e9a\u592a\u533a\u603b\u7ecf\u7406
p151
V\u8fd0\u8425\u4e13\u5458
p152
sV\u9ad8\u7ea7\u7ed3\u6784\u5de5\u7a0b\u5e08
p153
V\u673a\u68b0\u5de5\u7a0b\u5e08
p154
sV\u7efc\u5408\u5458
p155
V\u4f1a\u8ba1
p156
sV\u4fe1\u8d37\u4e3b\u7ba1
p157
V\u91c7\u8d2d\u7ecf\u7406
p158
sV\u4e1a\u52a1\u53d1\u5c55\u4e3b\u4efb
p159
V\u5e02\u573a\u7ecf\u7406
p160
sV\u5316\u5b66\u5236\u5242\u5458
p161
V\u5ba2\u670d
p162
sV\u5929\u6d25\u57ce\u5e02\u7ecf\u7406
p163
V\u9500\u552e\u7ecf\u7406
p164
sV\u57ce\u5e02\u4ee3\u8868
p165
V\u5e02\u573a\u7ecf\u7406
p166
sV\u5e73\u53f0\u68c0\u6d4b
p167
V\u8d28\u91cf(QA/QC)
p168
sV\u914d\u8272\u5de5\u7a0b\u5e08
p169
V\u5f00\u53d1\u5de5\u7a0b\u5e08
p170
sV\u7b7e\u7ea6\u4ee3\u8868
p171
V\u8d28\u91cf(QA/QC)
p172
sV\u8d44\u6df1\u79fb\u6c11\u987e\u95ee
p173
V\u9500\u552e\u7ecf\u7406
p174
sV\u5de5\u7a0b\u652f\u6301
p175
V\u540e\u52e4\u4e3b\u7ba1
p176
sV\u503c\u73ed\u5de5\u7a0b\u5e08
p177
V\u6280\u672f\u652f\u6301
p178
sV\u5b66\u4e60\u53d1\u5c55\u54a8\u8be2\u52a9\u7406
p179
V\u4eba\u529b\u8d44\u6e90\u4e13\u5458
p180
sV\u5efa\u8bbe\u529e\u6210\u5458
p181
V\u4f1a\u8ba1
p182
sV\u57fa\u5c42\u80a1\u957f
p183
V\u4f1a\u8ba1
p184
sV\u878d\u8d44\u5b9e\u4e60\u751f
p185
V\u4f1a\u8ba1
p186
sV\u836f\u623f\u4eba\u5458
p187
V\u540e\u52e4\u4e13\u5458
p188
sV\u5927\u533a\u603b\u7ecf\u7406
p189
V\u9500\u552e\u7ecf\u7406
p190
sV\u9ad8\u7ba1\u5c42\u4f1a\u670d
p191
V\u4eba\u529b\u8d44\u6e90\u7ecf\u7406
p192
sV\u5458\u5de5\u53d1\u5c55\u4e3b\u7ba1
p193
V\u4eba\u529b\u8d44\u6e90\u7ecf\u7406
p194
sV\u8282\u76ee\u90e8\u4e3b\u4efb
p195
V\u9879\u76ee\u7ecf\u7406
p196
sV\u54a8\u8be2\u4e3b\u4efb
p197
V\u5e02\u573a\u603b\u76d1
p198
sV\u7f51\u7edc\u4e2d\u5fc3\u603b\u76d1
p199
V\u8fd0\u8425\u4e13\u5458
p200
sV\u5c0f\u5fae\u52a9\u7406
p201
V\u4eba\u529b\u8d44\u6e90\u4e13\u5458
p202
sV\u5e97\u94fa\u5f00\u53d1\u7ecf\u7406
p203
V\u91c7\u8d2d\u7ecf\u7406
p204
sVPQE\u5de5\u7a0b\u5e08
p205
V\u8d28\u91cf(QA/QC)
p206
sV\u7535\u6c14\u9879\u76ee\u5de5\u7a0b\u5e08
p207
V\u8f6f\u4ef6\u6d4b\u8bd5
p208
sV\u57ce\u5e02\u7ecf\u7406
p209
V\u9500\u552e\u7ecf\u7406
p210
sV\u539f\u6750\u6599\u8ba1\u5212\u5458
p211
V\u91c7\u8d2d\u7ecf\u7406
p212
sV\u8bd5\u6a21\u5de5\u7a0b\u5e08
p213
V\u751f\u4ea7\u7ecf\u7406
p214
sV\u6e56\u5357\u529e\u4e8b\u5904\u7ecf\u7406
p215
V\u8fd0\u8425\u7ecf\u7406
p216
sV\u5c55\u5385\u4f1a\u52a1\u4e3b\u7ba1\u517c\u7269\u4e1a\u7ecf\u7406\u52a9\u7406
p217
V\u4eba\u529b\u8d44\u6e90\u4e13\u5458
p218
sV\u5a92\u4ecb\u63a8\u5e7f\u7ecf\u7406
p219
V\u9879\u76ee\u7ecf\u7406
p220
sV\u8d44\u91d1\u7ba1\u7406\u5c97
p221
V\u8d22\u52a1
p222
sV\u5de5\u7a0b\u90e8\u6280\u672f\u5458
p223
V\u5f00\u53d1\u5de5\u7a0b\u5e08
p224
sV\u7535\u6e90\u5f00\u53d1\u52a9\u7406
p225
V\u8f6f\u4ef6\u6d4b\u8bd5
p226
sV\u56fa\u5b9a\u8d44\u4ea7\u7ba1\u7406
p227
V\u91c7\u8d2d\u52a9\u7406
p228
sV\u697c\u5c42\u7ecf\u7406
p229
V\u9500\u552e\u7ecf\u7406
p230
sV\u8c03\u5ea6\u4e13\u5458
p231
V\u9500\u552e\u7ecf\u7406
p232
sV\u4e3b\u7ba1\u8bbe\u8ba1\u5e08
p233
V\u673a\u68b0\u5de5\u7a0b\u5e08
p234
sVCNC\u6280\u5e08
p235
V\u673a\u68b0\u5de5\u7a0b\u5e08
p236
sVEMC\u5de5\u7a0b\u5e08
p237
V\u8f6f\u4ef6\u6d4b\u8bd5
p238
sV\u8f6f\u4ef6\u4ea7\u54c1\u7ecf\u7406
p239
V\u5f00\u53d1\u5de5\u7a0b\u5e08
p240
sV\u534e\u5317\u533a\u9152\u5e97\u4e1a\u52a1\u652f\u6491
p241
V\u8fd0\u8425\u7ecf\u7406
p242
sV\u54c1\u724c\u7b56\u7565\u7ecf\u7406
p243
V\u5e02\u573a\u7ecf\u7406
p244
sV\u54c1\u7c7b\u7763\u5bfc
p245
V\u9500\u552e\u4e13\u5458
p246
sV\u52a8\u529b\u90e8\u7ec4\u957f
p247
V\u673a\u68b0\u5de5\u7a0b\u5e08
p248
sV\u4e2d\u7ea7\u5b9e\u65bd\u5de5\u7a0b\u5e08
p249
V\u6280\u672f\u652f\u6301
p250
sV\u7ba1\u7406\u987e\u95ee\u517c\u7ba1\u7406\u8005\u4ee3\u8868
p251
V\u8fd0\u8425\u603b\u76d1
p252
sV\u9879\u76ee\u8fd0\u4f5c\u7ecf\u7406
p253
V\u9500\u552e\u7ecf\u7406
p254
sV\u5916\u534f\u4e3b\u7ba1
p255
V\u9879\u76ee\u7ecf\u7406
p256
sV\u5168\u56fd\u62db\u5546\u603b\u76d1
p257
V\u9500\u552e\u603b\u76d1
p258
sV\u4e92\u8054\u7f51\u4ea7\u54c1\u4e3b\u7ba1
p259
V\u8fd0\u8425\u4e13\u5458
p260
sV\u67e5\u76d7\u4e13\u5458
p261
V\u5ba2\u670d
p262
sV\u85aa\u916c\u8003\u6838\u7ecf\u7406
p263
V\u4eba\u529b\u8d44\u6e90\u7ecf\u7406
p264
sV\u5de5\u7a0b\u68c0\u6d4b\u5458
p265
V\u9500\u552e\u7ecf\u7406
p266
sV\u767e\u8d27\u90e8\u8bfe\u957f
p267
V\u9500\u552e\u7ecf\u7406
p268
sV\u76d1\u7763\u7ba1\u7406\u4e13\u5458
p269
V\u9500\u552e\u7ecf\u7406
p270
sV\u6d4b\u91cf\u526f\u73ed\u957f
p271
V\u9879\u76ee\u7ecf\u7406
p272
sV\u4e8b\u4e1a\u7fa4\u526f\u603b\u7ecf\u7406\u517c\u603b\u88c1\u52a9\u7406
p273
V\u8fd0\u8425\u7ecf\u7406
p274
sV\u5de5\u7a0b\u526f\u603b\u76d1
p275
V\u9879\u76ee\u7ecf\u7406
p276
sVME\u5de5\u7a0b\u5e08
p277
V\u673a\u68b0\u5de5\u7a0b\u5e08
p278
sV\u7a7a\u8c03\u4ea7\u54c1\u7ecf\u7406
p279
V\u9500\u552e\u7ecf\u7406
p280
sV\u653f\u5e9c\u9879\u76ee\u4e13\u5458
p281
V\u4eba\u529b\u8d44\u6e90\u4e13\u5458
p282
sV\u540e\u53a8\u7ba1\u7406
p283
V\u540e\u52e4\u4e13\u5458
p284
sV\u62db\u751f\u4e3b\u4efb
p285
V\u8fd0\u8425\u7ecf\u7406
p286
sV\u62d3\u5f20\u7ecf\u7406
p287
V\u9500\u552e\u7ecf\u7406
p288
sV\u9ad8\u7ea7\u8bbe\u5907\u9879\u76ee\u5de5\u7a0b\u5e08
p289
V\u9500\u552e\u7ecf\u7406
p290
sV\u4f01\u4e1a\u6587\u5316\u4e13\u5458
p291
V\u4eba\u529b\u8d44\u6e90\u4e13\u5458
p292
sV\u8d44\u6e90\u7ecf\u7406
p293
V\u9879\u76ee\u7ecf\u7406
p294
sVQE\u5de5\u7a0b\u5e08
p295
V\u8d28\u91cf(QA/QC)
p296
sV\u4e13\u6848\u7ecf\u7406
p297
V\u9879\u76ee\u7ecf\u7406
p298
sV\u5e26\u73ed\u4e3b\u7ba1
p299
V\u673a\u68b0\u5de5\u7a0b\u5e08
p300
sV\u7f51\u7edc\u4e0e\u4fe1\u606f\u5b89\u5168\u9ad8\u7ea7\u5de5\u7a0b\u5e08
p301
V\u9879\u76ee\u7ecf\u7406
p302
sV\u62db\u751f\u6821\u957f
p303
V\u5ba2\u670d\u7ecf\u7406
p304
sV\u9884\u7b97\u4e3b\u7ba1
p305
V\u8d22\u52a1
p306
sV\u603b\u7ecf\u529e\u6587\u5458
p307
V\u4eba\u529b\u8d44\u6e90\u7ecf\u7406
p308
sVLED\u7814\u53d1\u4e3b\u7ba1
p309
V\u5f00\u53d1\u5de5\u7a0b\u5e08
p310
sV\u7535\u5b50\u5546\u57ce\u7ecf\u7406
p311
V\u8fd0\u8425\u603b\u76d1
p312
sV\u4fe1\u7528\u521d\u5ba1
p313
V\u4f1a\u8ba1
p314
sV\u4e2a\u4f53\u4e1a\u4e3b
p315
V\u9500\u552e\u4e13\u5458
p316
sV\u8425\u63a8\u4e3b\u7ba1
p317
V\u8fd0\u8425\u603b\u76d1
p318
sV\u5f00\u5355\u6587\u5458
p319
V\u4f1a\u8ba1
p320
sV\u52a8\u529b\u5339\u914d\u5de5\u7a0b\u5e08
p321
V\u673a\u68b0\u5de5\u7a0b\u5e08
p322
sV\u9879\u76ee\u9ad8\u7ea7\u7ecf\u7406
p323
V\u9879\u76ee\u7ecf\u7406
p324
sV\u5236\u5355\u5458
p325
V\u91c7\u8d2d\u52a9\u7406
p326
sV\u5305\u8f6c\u5de5\u7a0b\u5e08
p327
V\u4eba\u529b\u8d44\u6e90\u4e13\u5458
p328
sV\u7269\u673a\u90e8\u90e8\u957f
p329
V\u673a\u68b0\u5de5\u7a0b\u5e08
p330
sV\u6838\u7b97\u4e13\u5458
p331
V\u4f1a\u8ba1
p332
sV\u98ce\u63a7\u521d\u5ba1
p333
V\u5ba2\u670d\u7ecf\u7406
p334
sV\u5916\u9500\u90e8\u7ecf\u7406
p335
V\u9500\u552e\u7ecf\u7406
p336
sV\u5a92\u4ecb\u526f\u603b\u76d1
p337
V\u5e02\u573a\u603b\u76d1
p338
sV\u5382\u52a1\u4e3b\u7ba1
p339
V\u9879\u76ee\u7ecf\u7406
p340
sV\u5728\u7ebf\u54a8\u8be2
p341
V\u5ba2\u670d\u7ecf\u7406
p342
sVDMS\u5de5\u7a0b\u5e08
p343
V\u6280\u672f\u652f\u6301
p344
sV\u96c6\u56e2\u7b56\u5212\u4e3b\u7ba1
p345
V\u9879\u76ee\u7ecf\u7406
p346
sV\u81ea\u8425\u6dd8\u5b9d\u7f51\u5e97
p347
V\u8fd0\u8425\u4e13\u5458
p348
sV\u897f\u5357\u5927\u533a\u603b\u76d1
p349
V\u9500\u552e\u7ecf\u7406
p350
sV\u91d1\u5e93
p351
V\u4f1a\u8ba1
p352
sV\u8239\u52a1\u64cd\u4f5c\u4e3b\u7ba1
p353
V\u4eba\u529b\u8d44\u6e90\u4e13\u5458
p354
sV\u8f66\u961f\u64cd\u4f5c
p355
V\u9500\u552e\u7ecf\u7406
p356
sV\u751f\u9c9c\u90e8\u7ecf\u7406
p357
V\u4eba\u529b\u8d44\u6e90\u7ecf\u7406
p358
sV\u4f20\u7edf\u5bb6\u7535\u4e3b\u4efb
p359
V\u9500\u552e\u7ecf\u7406
p360
sV\u4e1a\u52a1\u5f00\u53d1\u4e3b\u7ba1
p361
V\u9879\u76ee\u7ecf\u7406
p362
sV\u901a\u8baf\u4e3b\u7ba1
p363
V\u5f00\u53d1\u5de5\u7a0b\u5e08
p364
sV\u6210\u54c1\u6700\u7ec8\u68c0\u6d4b
p365
V\u8d28\u91cf(QA/QC)
p366
sV\u5546\u573a\u6536\u94f6\u5458
p367
V\u8d22\u52a1
p368
sVGSM\u65e0\u7ebf\u4f18\u5316\u5de5\u7a0b\u5e08
p369
V\u6280\u672f\u652f\u6301
p370
sV\u5de5\u7a0b\u8ba1\u5212\u7ba1\u7406
p371
V\u4eba\u529b\u8d44\u6e90\u7ecf\u7406
p372
sV\u8bb0\u8d26\u90e8\u4e3b\u7ba1
p373
V\u8d22\u52a1
p374
sV\u9879\u76ee\u54a8\u8be2\u52a9\u7406
p375
V\u4eba\u529b\u8d44\u6e90\u4e13\u5458
p376
sVX\u7cfb\u5217\u6280\u672f\u670d\u52a1\u5de5\u7a0b\u5e08
p377
V\u6280\u672f\u652f\u6301
p378
sVACS\u90e8\u95e8cop\u5b9e\u9a8c\u5ba4
p379
V\u6280\u672f\u652f\u6301
p380
sV\u603b\u7ecf\u7406\u529e\u516c\u5ba4\u4e3b\u7ba1
p381
V\u8fd0\u8425\u603b\u76d1
p382
sV\u914d\u5957\u90e8\u957f
p383
V\u9500\u552e\u4e13\u5458
p384
sV\u9910\u996e\u7ba1\u7406\u90e8\u90e8\u957f
p385
V\u751f\u4ea7\u7ecf\u7406
p386
sV\u79d1\u7814\u52a9\u7406
p387
V\u8f6f\u4ef6\u6d4b\u8bd5
p388
sV\u7ecf\u6d4e\u5b98\u5458
p389
V\u5e02\u573a\u4e13\u5458
p390
sV\u56fd\u9645\u8d38\u6613
p391
V\u9500\u552e\u7ecf\u7406
p392
sV\u62db\u5546\u4ee3\u8868
p393
V\u9500\u552e\u4e13\u5458
p394
sV\u7b7e\u8bc1\u4e3b\u7ba1
p395
V\u8fd0\u8425\u4e13\u5458
p396
sV\u98ce\u9669\u63a7\u5236\u5c97
p397
V\u4f1a\u8ba1
p398
sV\u90e8\u95e8\u526f\u7ecf\u7406\u517c\u6280\u672f\u8d1f\u8d23\u4eba
p399
V\u5f00\u53d1\u5de5\u7a0b\u5e08
p400
sV\u8425\u4e1a\u4e3b\u4efb
p401
V\u9500\u552e\u7ecf\u7406
p402
sV\u4e2d\u56fd\u533a\u4e1a\u52a1\u62d3\u5c55\u603b\u76d1
p403
V\u5e02\u573a\u7ecf\u7406
p404
sV\u7535\u5b50\u90e8\u4e3b\u7ba1
p405
V\u91c7\u8d2d\u7ecf\u7406
p406
sV\u6e05\u7b97\u4e3b\u7ba1
p407
V\u4f1a\u8ba1
p408
sV\u7ef4\u4fee\u90e8
p409
V\u673a\u68b0\u5de5\u7a0b\u5e08
p410
sV\u9879\u76ee\u7533\u62a5\u4e3b\u7ba1
p411
V\u9879\u76ee\u7ecf\u7406
p412
sV\u8bd5\u9a8c\u5ba4\u4e3b\u7ba1
p413
V\u5f00\u53d1\u5de5\u7a0b\u5e08
p414
sV\u7cfb\u7edf\u5206\u6790\u5458
p415
V\u8f6f\u4ef6\u6d4b\u8bd5
p416
sV\u5de5\u827a\u5de5\u7a0b\u5e08
p417
V\u673a\u68b0\u5de5\u7a0b\u5e08
p418
sV\u8bbe\u65bd\u7ba1\u7406\u7ecf\u7406
p419
V\u8d22\u52a1
p420
sV\u6280\u672f\u670d\u52a1\u5de5\u7a0b\u5e08
p421
V\u6280\u672f\u652f\u6301
p422
sV\u603b\u7ecf\u7406\u4e13\u804c\u9a7e\u9a76\u5458
p423
V\u540e\u52e4\u4e13\u5458
p424
sV\u7efc\u5408\u7ba1\u7406\u4e2d\u5fc3\u603b\u76d1
p425
V\u8d28\u91cf(QA/QC)
p426
sV\u54c1\u4fdd\u90e8\u7ecf\u7406
p427
V\u8d28\u91cf(QA/QC)
p428
sV\u8ba1\u5212\u4e0b\u5355\u5458
p429
V\u91c7\u8d2d\u52a9\u7406
p430
sV\u7efc\u5408\u529e\u804c\u5458
p431
V\u4eba\u529b\u8d44\u6e90\u4e13\u5458
p432
sV\u86cb\u767d\u63d0\u53d6\u8d1f\u8d23\u4eba
p433
V\u8d28\u91cf(QA/QC)
p434
sV\u5987\u5e7c\u4e13\u5e72
p435
V\u5ba2\u670d\u7ecf\u7406
p436
sV\u654f\u6377\u5e03\u9053\u5e08
p437
V\u8f6f\u4ef6\u6d4b\u8bd5
p438
sV\u571f\u5efa\u4e3b\u4efb\u5de5\u7a0b\u5e08
p439
V\u8d28\u91cf(QA/QC)
p440
sV\u4e13\u4e1a\u57f9\u8bad\u5e08
p441
V\u6280\u672f\u652f\u6301
p442
sV\u7279\u5356\u5e97\u957f
p443
V\u9500\u552e\u4e13\u5458
p444
sV\u7269\u7406\u5b9e\u9a8c\u5ba4\u5168\u804c\u6280\u672f\u5458
p445
V\u8d28\u91cf(QA/QC)
p446
sV\u53d1\u5c55\u89c4\u5212\u7ecf\u7406
p447
V\u8fd0\u8425\u4e13\u5458
p448
sV\u8bbe\u8ba1\u6392\u7248\u5458
p449
V\u5ba2\u670d
p450
sV\u8ba4\u8bc1\u4e13\u5458
p451
V\u9500\u552e\u7ecf\u7406
p452
sV\u5496\u5561\u5e08
p453
V\u8d22\u52a1
p454
sV\u6cd5\u52a1\u52a9\u7406\u5b9e\u4e60\u751f
p455
V\u4f1a\u8ba1
p456
sV\u4ff1\u4e50\u90e8\u603b\u76d1
p457
V\u5e02\u573a\u603b\u76d1
p458
sV\u533b\u7597\u5668\u68b0\u7814\u53d1
p459
V\u5f00\u53d1\u5de5\u7a0b\u5e08
p460
sV\u8f66\u961f\u7ba1\u7406
p461
V\u9879\u76ee\u7ecf\u7406
p462
sVB2B\u5e73\u53f0\u4f9b\u5e94\u5408\u4f5c\u7ecf\u7406
p463
V\u8fd0\u8425\u4e13\u5458
p464
sV\u7ba1\u7406\u4e1a\u4ee3
p465
V\u9500\u552e\u7ecf\u7406
p466
sV\u54a8\u8be2\u987e\u95ee\u52a9\u7406
p467
V\u4eba\u529b\u8d44\u6e90\u4e13\u5458
p468
sVIT\u7ba1\u7406\u5458
p469
V\u6280\u672f\u652f\u6301
p470
sV\u50a8\u8fd0\u90e8\u7ecf\u7406
p471
V\u7269\u6d41\u7ecf\u7406
p472
sV\u7535\u5b50\u58f0\u50cf\u6570\u636e\u9274\u5b9a\u52a9\u7406
p473
V\u8fd0\u8425\u4e13\u5458
p474
sV\u8425\u9500\u4e2d\u5fc3\u52a9\u7406
p475
V\u5ba2\u670d
p476
sV\u88c5\u9970\u5de5\u7a0b\u5e08
p477
V\u9879\u76ee\u7ecf\u7406
p478
sV\u5206\u5b50\u8bca\u65ad\u4e8b\u4e1a\u90e8\u90e8\u957f
p479
V\u751f\u4ea7\u603b\u76d1
p480
sV\u57fa\u5efa\u603b\u76d1
p481
V\u9879\u76ee\u7ecf\u7406
p482
sV\u9879\u76ee\u5de5\u7a0b\u5e08
p483
V\u673a\u68b0\u5de5\u7a0b\u5e08
p484
sV\u5206\u516c\u53f8\u4e3b\u7ba1
p485
V\u5ba2\u670d\u7ecf\u7406
p486
sV\u7f51\u7edc\u63a8\u5e7f\u90e8\u7ecf\u7406
p487
V\u5e02\u573a\u603b\u76d1
p488
sV\u7535\u6c14\u65bd\u5de5\u5458
p489
V\u751f\u4ea7\u7ecf\u7406
p490
sV\u5f00\u53d1\u90e8
p491
V\u5f00\u53d1\u5de5\u7a0b\u5e08
p492
sV\u5ba1\u6838\u4e13\u5458
p493
V\u4f1a\u8ba1
p494
sV\u6cd5\u8b66
p495
V\u9500\u552e\u4e13\u5458
p496
sV\u94f6\u884c\u67dc\u5458
p497
V\u4f1a\u8ba1
p498
sVLED\u5b9e\u9a8c\u5ba4\u4e3b\u4efb
p499
V\u8f6f\u4ef6\u6d4b\u8bd5
p500
sV\u98df\u5802\u73ed\u957f
p501
V\u540e\u52e4\u4e13\u5458
p502
sV\u91d1\u878d\u670d\u52a1\u52a9\u7406
p503
V\u4f1a\u8ba1
p504
sV\u5e7f\u544a\u7d20\u6750\u4e13\u5458
p505
V\u8fd0\u8425\u4e13\u5458
p506
sVRKA\u7763\u5bfc
p507
V\u9500\u552e\u7ecf\u7406
p508
sV\u8ba1\u5212\u7ba1\u7406\u7ecf\u7406
p509
V\u8fd0\u8425\u7ecf\u7406
p510
sV\u51fa\u53e3\u9000\u7a0e
p511
V\u8d22\u52a1
p512
sV\u603b\u52a1\u62c5\u5f53
p513
V\u9500\u552e\u4e13\u5458
p514
sV\u9ad8\u6821\u4ee3\u7406
p515
V\u4f1a\u8ba1
p516
sV\u56e2\u59d4\u6570\u8ba1\u517c\u9662\u957f\u52a9\u7406
p517
V\u5e02\u573a\u7ecf\u7406
p518
sV\u6309\u63ed\u4e13\u5458
p519
V\u9500\u552e\u4e13\u5458
p520
sV\u8d28\u4fdd\u90e8\u90e8\u957f\u517c\u7ba1\u7406\u8005\u4ee3\u8868
p521
V\u751f\u4ea7\u7ecf\u7406
p522
sV\u79fb\u52a8\u652f\u6301\u4e3b\u7ba1
p523
V\u5ba2\u670d\u7ecf\u7406
p524
sV\u51fa\u53e3\u5355\u8bc1\u5458
p525
V\u5ba2\u670d
p526
sV\u5de5\u7a0b\u6280\u672f\u7ba1\u7406
p527
V\u9879\u76ee\u7ecf\u7406
p528
sV\u8d44\u91d1\u4e3b\u7ba1
p529
V\u4f1a\u8ba1
p530
sV\u4f1a\u52a1\u7ec4\u7ec4\u957f
p531
V\u5e02\u573a\u7ecf\u7406
p532
sV\u56fd\u9645\u4e1a\u52a1\u52a9\u7406
p533
V\u4f1a\u8ba1
p534
sV\u4e2a\u4f53\u7f51\u7edc\u63a8\u5e7f
p535
V\u91c7\u8d2d\u7ecf\u7406
p536
sV\u7efc\u5408\u7ba1\u7406\u90e8\u957f
p537
V\u9879\u76ee\u7ecf\u7406
p538
sV\u5316\u5b66\u54c1\u7ba1\u7406
p539
V\u6280\u672f\u652f\u6301
p540
sV\u7a3d\u67e5\u603b\u76d1
p541
V\u8d22\u52a1
p542
sV\u5e38\u52a1\u7ecf\u7406
p543
V\u9500\u552e\u603b\u76d1
p544
sV\u6e38\u620f\u63a8\u5e7f\u4ee3\u8868
p545
V\u9500\u552e\u7ecf\u7406
p546
sV\u5546\u670d\u90e8\u7ecf\u7406
p547
V\u5e02\u573a\u7ecf\u7406
p548
sV\u4e70\u624b\u7ec4\u957f
p549
V\u91c7\u8d2d\u7ecf\u7406
p550
sV\u7b56\u5212\u9ad8\u7ea7\u7ecf\u7406
p551
V\u9879\u76ee\u7ecf\u7406
p552
sVphp\u5f00\u53d1\u4e3b\u7ba1
p553
V\u5f00\u53d1\u5de5\u7a0b\u5e08
p554
sV\u9879\u76ee\u5185\u5bb9\u4e0e\u8bbe\u7f6e\u7ba1\u7406
p555
V\u8fd0\u8425\u4e13\u5458
p556
sV\u4f1a\u5c55\u7b56\u5212\u7ecf\u7406
p557
V\u9500\u552e\u7ecf\u7406
p558
sV\u836f\u54c1\u5236\u5242\u7814\u53d1
p559
V\u8d28\u91cf(QA/QC)
p560
sV\u96c6\u56e2\u8d22\u52a1\u4e2d\u5fc3\u526f\u7ecf\u7406
p561
V\u4f1a\u8ba1
p562
sV\u7b56\u5212\u90e8\u603b\u76d1\u52a9\u7406
p563
V\u8fd0\u8425\u4e13\u5458
p564
sV\u7efc\u5408\u7ba1\u7406\u90e8\u9ad8\u7ea7\u7ecf\u7406
p565
V\u4eba\u529b\u8d44\u6e90\u7ecf\u7406
p566
sV\u79d1\u6280\u6863\u6848\u7ba1\u7406
p567
V\u4eba\u529b\u8d44\u6e90\u4e13\u5458
p568
sV\u9648\u5217\u517c\u5e93\u5b58\u7ba1\u7406
p569
V\u4eba\u529b\u8d44\u6e90\u4e13\u5458
p570
sV\u5de5\u7a0b\u6280\u672f\u90e8\u7ecf\u7406
p571
V\u9879\u76ee\u7ecf\u7406
p572
sV\u9ad8\u7ea7\u5206\u6790\u5e08
p573
V\u9879\u76ee\u7ecf\u7406
p574
sV\u673a\u5668\u89c6\u89c9\u5de5\u7a0b\u5e08
p575
V\u9879\u76ee\u7ecf\u7406
p576
sV\u4ed3\u7ba1\u52a9\u7406
p577
V\u7269\u6d41\u4e13\u5458
p578
sV\u9879\u76ee\u4e3b\u4efb
p579
V\u9879\u76ee\u7ecf\u7406
p580
sV\u73b0\u573a\u68c0\u6d4b\u4eba\u5458
p581
V\u8d28\u91cf(QA/QC)
p582
sV\u5927\u5802\u52a9\u7406
p583
V\u4f1a\u8ba1
p584
sV\u4f53\u7cfb\u5de5\u7a0b\u5e08
p585
V\u8d28\u91cf(QA/QC)
p586
sV\u5ba1\u8ba1\u90e8\u4e3b\u4efb
p587
V\u8d22\u52a1
p588
sVBI\u5de5\u7a0b\u5e08
p589
V\u9879\u76ee\u7ecf\u7406
p590
sV\u7535\u5546\u4e8b\u4e1a\u90e8\u7ecf\u7406
p591
V\u8fd0\u8425\u7ecf\u7406
p592
sV\u5c0f\u4f01\u4e1a\u91d1\u878d\u90e8\u7ec4\u957f
p593
V\u4f1a\u8ba1
p594
sV\u7528\u6237\u4f53\u9a8c\u7ba1\u7406\u5de5\u7a0b\u5e08
p595
V\u8f6f\u4ef6\u6d4b\u8bd5
p596
sV\u7a3f\u5b50\u54a8\u8be2\u5e08
p597
V\u8fd0\u8425\u603b\u76d1
p598
sV\u91c7\u9500\u52a9\u7406
p599
V\u5ba2\u670d
p600
sV\u5f71\u9662\u52a9\u7406
p601
V\u4eba\u529b\u8d44\u6e90\u4e13\u5458
p602
sV\u7ec8\u7aef\u53d1\u5c55\u603b\u76d1
p603
V\u4eba\u529b\u8d44\u6e90\u4e13\u5458
p604
sV\u4ed3\u52a1\u5458
p605
V\u540e\u52e4\u4e13\u5458
p606
sV\u6dd8\u5b9d\u4e13\u5458
p607
V\u8fd0\u8425\u603b\u76d1
p608
sV\u4f01\u4e1aIT\u670d\u52a1\u90e8\u7ecf\u7406
p609
V\u8fd0\u8425\u4e13\u5458
p610
sV\u9a71\u52a8\u5f00\u53d1\u5b9e\u4e60\u751f
p611
V\u8f6f\u4ef6\u6d4b\u8bd5
p612
sV\u57fa\u7840\u4e8b\u4e1a\u90e8\u4f1a\u9500\u8bb2\u5e08
p613
V\u4eba\u529b\u8d44\u6e90\u7ecf\u7406
p614
sV\u673a\u52a1\u6280\u672f
p615
V\u673a\u68b0\u5de5\u7a0b\u5e08
p616
sV\u6c7d\u8f66\u95e8\u9501\u7a0b\u5e8f\u68c0\u6d4b
p617
V\u8fd0\u8425\u4e13\u5458
p618
sV\u52b3\u52a1\u90e8\u7ecf\u7406
p619
V\u4eba\u529b\u8d44\u6e90\u7ecf\u7406
p620
sV\u5e97\u9762\u7ecf\u7406
p621
V\u9500\u552e\u7ecf\u7406
p622
sV\u4eba\u8d44\u4e2d\u5fc3\u526f\u4e3b\u4efb
p623
V\u4eba\u529b\u8d44\u6e90\u7ecf\u7406
p624
sV\u4ea7\u54c1\u63a8\u5e7f\u7ecf\u7406
p625
V\u6280\u672f\u652f\u6301
p626
sV\u8f6f\u4ef6\u5916\u5305
p627
V\u6280\u672f\u652f\u6301
p628
sV\u57ce\u5e02\u529e\u516c\u5ba4\u4e3b\u4efb
p629
V\u4eba\u529b\u8d44\u6e90\u7ecf\u7406
p630
sV\u4e3b\u7ba1\u5de5\u7a0b\u5e08
p631
V\u9879\u76ee\u7ecf\u7406
p632
sV\u4ea7\u54c1\u9a8c\u8bc1\u7ecf\u7406
p633
V\u8f6f\u4ef6\u6d4b\u8bd5
p634
sV\u670d\u9970\u8bfe\u8425\u8fd0\u8bfe\u957f
p635
V\u4eba\u529b\u8d44\u6e90\u7ecf\u7406
p636
sVSP\u7ba1\u7406\u987e\u95ee
p637
V\u8fd0\u8425\u7ecf\u7406
p638
sV\u4f5c\u4e1a\u533a\u64cd\u4f5c\u5de5
p639
V\u5e02\u573a\u4e13\u5458
p640
sV\u4e2d\u65b9\u603b\u7ecf\u7406
p641
V\u751f\u4ea7\u603b\u76d1
p642
sV\u7535\u5f71\u653e\u6620\u5458
p643
V\u4eba\u529b\u8d44\u6e90\u4e13\u5458
p644
sV\u5408\u540c\u5546\u52a1\u529e\u516c\u5ba4\u4e3b\u4efb
p645
V\u540e\u52e4\u4e3b\u7ba1
p646
sV\u9762\u6599\u90e8\u7ecf\u7406
p647
V\u751f\u4ea7\u7ecf\u7406
p648
sV\u57ce\u5e02\u4e3b\u7ba1
p649
V\u8fd0\u8425\u7ecf\u7406
p650
sV\u8425\u8fd0\u62d3\u5c55\u7ecf\u7406
p651
V\u9500\u552e\u7ecf\u7406
p652
sV\u7f51\u5e97\u638c\u67dc
p653
V\u4eba\u529b\u8d44\u6e90\u4e13\u5458
p654
sV\u5206\u5e97\u603b\u7ecf\u7406
p655
V\u9500\u552e\u603b\u76d1
p656
sV\u914d\u9001\u4e2d\u5fc3\u7ecf\u7406
p657
V\u5ba2\u670d\u7ecf\u7406
p658
sV\u987e\u95ee\u884c\u9500\u4e3b\u7ba1
p659
V\u8fd0\u8425\u4e13\u5458
p660
sV\u589e\u503c\u4e1a\u52a1\u603b\u76d1
p661
V\u5e02\u573a\u603b\u76d1
p662
sV\u5bf9\u5916\u5ba3\u4f20\u4e13\u5458
p663
V\u8fd0\u8425\u4e13\u5458
p664
sV\u5a92\u4f53\u5f00\u53d1\u4e0e\u7ba1\u7406
p665
V\u4eba\u529b\u8d44\u6e90\u4e13\u5458
p666
sV\u5ba1\u8ba1\u5e08
p667
V\u4f1a\u8ba1
p668
sV\u8bfe\u7a0b\u54a8\u8be2
p669
V\u5ba2\u670d
p670
sV\u5f00\u53d1\u90e8\u4e3b\u7ba1
p671
V\u9879\u76ee\u7ecf\u7406
p672
sVPE\u5de5\u7a0b\u4e3b\u7ba1
p673
V\u8f6f\u4ef6\u6d4b\u8bd5
p674
sV\u5e94\u4ed8\u4e3b\u7ba1
p675
V\u4f1a\u8ba1
p676
sV\u9700\u6c42\u5206\u6790\u5458
p677
V\u8f6f\u4ef6\u6d4b\u8bd5
p678
sV\u5bb6\u7535\u5904\u7ec4\u957f
p679
V\u4f1a\u8ba1
p680
sV\u7f51\u5e97\u5f00\u53d1\u90e8\u8d1f\u8d23\u4eba
p681
V\u5e02\u573a\u7ecf\u7406
p682
sV\u6838\u7b97\u7ec4\u7ec4\u957f
p683
V\u4f1a\u8ba1
p684
sV\u7f8e\u98df\u8857\u8425\u8fd0\u7ecf\u7406
p685
V\u4eba\u529b\u8d44\u6e90\u7ecf\u7406
p686
sV\u8bbe\u8ba1\u7ec4\u957f
p687
V\u5f00\u53d1\u5de5\u7a0b\u5e08
p688
sV\u5458\u5de5\u5173\u7cfb\u8bfe\u4ee3\u7406\u8bfe\u957f
p689
V\u4eba\u529b\u8d44\u6e90\u7ecf\u7406
p690
sV\u7efc\u5408\u90e8\u90e8\u957f
p691
V\u4eba\u529b\u8d44\u6e90\u7ecf\u7406
p692
sV\u6c7d\u8f66\u7f51\u7ad9\u7f16\u8f91
p693
V\u4f1a\u8ba1
p694
sV\u5546\u52a1\u62d3\u5c55\u603b\u76d1
p695
V\u9500\u552e\u603b\u76d1
p696
sV\u5b89\u5168\u79d1\u957f
p697
V\u9879\u76ee\u7ecf\u7406
p698
sV\u51fa\u53e3\u90e8\u7ecf\u7406
p699
V\u9500\u552e\u7ecf\u7406
p700
sV\u9655\u897f\u5206\u516c\u53f8\u603b\u7ecf\u7406
p701
V\u8fd0\u8425\u603b\u76d1
p702
sV\u9884\u7b97\u5206\u6790\u4e3b\u7ba1
p703
V\u4f1a\u8ba1
p704
sV\u5317\u65b9\u533a\u7ecf\u7406
p705
V\u9500\u552e\u603b\u76d1
p706
sV\u526f\u603b\u7ecf\u7406\u517c\u7ba1\u4ee3
p707
V\u751f\u4ea7\u7ecf\u7406
p708
sV\u7f51\u4f18\u5de5\u7a0b\u5e08
p709
V\u8f6f\u4ef6\u6d4b\u8bd5
p710
sV\u7814\u53d1\u4e3b\u7ba1\u5de5\u7a0b\u5e08
p711
V\u5f00\u53d1\u5de5\u7a0b\u5e08
p712
sV\u6280\u672f\u8d1f\u8d23\u4eba
p713
V\u9879\u76ee\u7ecf\u7406
p714
sV\u603b\u673a\u63a5\u7ebf\u5458
p715
V\u5ba2\u670d
p716
sV\u5de5\u7a0b\u6807\u51c6\u8bfe\u8bfe\u957f
p717
V\u8d28\u91cf(QA/QC)
p718
sVSIE\u5de5\u7a0b\u5e08
p719
V\u751f\u4ea7\u4e13\u5458
p720
sV\u8d28\u68c0\u5de5\u7a0b\u5e08
p721
V\u8d28\u91cf(QA/QC)
p722
sV\u5916\u53d1\u7ba1\u7406
p723
V\u8d28\u91cf(QA/QC)
p724
sV\u8463\u4e8b\u603b\u7ecf\u7406
p725
V\u9500\u552e\u603b\u76d1
p726
sV\u8ba1\u5212\u4e3b\u7ba1\u5de5\u7a0b\u5e08
p727
V\u8fd0\u8425\u4e13\u5458
p728
sV\u652f\u6301\u90e8\u7ecf\u7406
p729
V\u9500\u552e\u7ecf\u7406
p730
sV\u5236\u54c1\u68c0\u67e5\u8bfe\u8bfe\u957f
p731
V\u8d28\u91cf(QA/QC)
p732
sV\u9a8c\u6536\u6587\u5458
p733
V\u8f6f\u4ef6\u6d4b\u8bd5
p734
sV\u8d28\u7ba1\u90e8\u4e3b\u7ba1
p735
V\u8d28\u91cf(QA/QC)
p736
sV\u9879\u76ee\u7814\u53d1\u4e3b\u7ba1
p737
V\u5f00\u53d1\u5de5\u7a0b\u5e08
p738
sV\u7efc\u5408\u7ba1\u7406\u90e8\u79d1\u5458
p739
V\u8fd0\u8425\u4e13\u5458
p740
sV\u8fbd\u5b81\u7701\u7ea7\u7ecf\u7406
p741
V\u9500\u552e\u7ecf\u7406
p742
sV\u666f\u533a\u526f\u603b\u7ecf\u7406
p743
V\u8fd0\u8425\u7ecf\u7406
p744
sV\u6280\u672f\u884c\u9500\u5de5\u7a0b\u5e08
p745
V\u8fd0\u8425\u4e13\u5458
p746
sV\u517c\u804c\u76d1\u8003\u8001\u5e08
p747
V\u4f1a\u8ba1
p748
sV\u5de5\u7a0b\u4e2d\u5fc3\u603b\u76d1
p749
V\u5e02\u573a\u603b\u76d1
p750
sV\u516c\u53f8\u6cbb\u7406\u8bc4\u7ea7\u5458
p751
V\u4f1a\u8ba1
p752
sV\u516c\u5b89\u6587\u804c
p753
V\u4eba\u529b\u8d44\u6e90\u4e13\u5458
p754
sVFAE\u73b0\u573a\u5e94\u7528\u5de5\u7a0b\u5e08
p755
V\u6280\u672f\u652f\u6301
p756
sV\u5916\u5305\u5546\u7ba1\u7406\u7ecf\u7406
p757
V\u7269\u6d41\u7ecf\u7406
p758
sV\u63a7\u5236\u5de5
p759
V\u8d28\u91cf(QA/QC)
p760
sV\u5f00\u6237\u53ca\u5408\u89c4\u5c97
p761
V\u8d22\u52a1
p762
sV\u7535\u6c14\u7ebf\u8def\u52a9\u7406\u5de5\u7a0b\u5e08
p763
V\u8d28\u91cf(QA/QC)
p764
sV\u9ad8\u7ea7\u7269\u4e1a\u987e\u95ee
p765
V\u5e02\u573a\u7ecf\u7406
p766
sV\u85aa\u916c\u4e3b\u7ba1
p767
V\u4eba\u529b\u8d44\u6e90\u7ecf\u7406
p768
sV\u7814\u53d1\u5de5\u827a\u5458
p769
V\u6280\u672f\u652f\u6301
p770
sV\u5ba1\u8ba1\u5e08\u52a9\u7406
p771
V\u4f1a\u8ba1
p772
sV\u8d22\u4f1a\u6559\u5e08
p773
V\u4f1a\u8ba1
p774
sV\u8f6f\u4ef6\u9700\u6c42\u5206\u6790\u5e08
p775
V\u8f6f\u4ef6\u6d4b\u8bd5
p776
sV\u7f51\u7edc\u7ba1\u7406\u90e8\u7ecf\u7406
p777
V\u9500\u552e\u603b\u76d1
p778
sV\u571f\u5efa\u4e3b\u7ba1
p779
V\u9879\u76ee\u7ecf\u7406
p780
sV\u5916\u8054\u4e3b\u7ba1
p781
V\u9500\u552e\u4e13\u5458
p782
sV\u5c04\u9891\u5de5\u7a0b\u5e08
p783
V\u8f6f\u4ef6\u6d4b\u8bd5
p784
sV\u9ad8\u7ea7\u68c0\u9a8c\u5458
p785
V\u8d28\u91cf(QA/QC)
p786
sV\u5546\u54c1\u6570\u636e\u5206\u6790
p787
V\u5ba2\u670d
p788
sV\u5ba2\u623f\u7ba1\u7406\u5b9e\u4e60\u751f
p789
V\u4eba\u529b\u8d44\u6e90\u4e13\u5458
p790
sV\u5bf9\u5916\u4e1a\u52a1\u5c97
p791
V\u8fd0\u8425\u4e13\u5458
p792
sV\u6559\u7ec3\u517c\u7247\u533a\u7ecf\u7406
p793
V\u5e02\u573a\u603b\u76d1
p794
sV\u62a5\u5173\u4e3b\u7ba1
p795
V\u7269\u6d41\u7ecf\u7406
p796
sV\u54a8\u8be2\u9879\u76ee\u5b9e\u4e60\u751f
p797
V\u4eba\u529b\u8d44\u6e90\u4e13\u5458
p798
sV\u7efc\u5408\u7ba1\u7406\u7ecf\u7406
p799
V\u8d22\u52a1
p800
sV\u6280\u672f\u6587\u6863\u5f00\u53d1
p801
V\u6280\u672f\u652f\u6301
p802
sV\u534e\u5317\u533a\u603b\u76d1\u52a9\u7406
p803
V\u8fd0\u8425\u4e13\u5458
p804
sV\u91c7\u77ff\u6280\u672f\u8d1f\u8d23\u4eba
p805
V\u751f\u4ea7\u4e13\u5458
p806
sV\u516c\u5173\u4e13\u5458
p807
V\u5e02\u573a\u4e13\u5458
p808
sV\u793e\u533a\u4e8b\u4e1a\u90e8\u4e3b\u7ba1
p809
V\u8fd0\u8425\u4e13\u5458
p810
sV\u4eba\u8d44\u90e8\u957f
p811
V\u4eba\u529b\u8d44\u6e90\u7ecf\u7406
p812
sV\u673a\u4fee\u7535\u5de5
p813
V\u673a\u68b0\u5de5\u7a0b\u5e08
p814
sV\u6570\u636e\u5206\u6790\u5de5\u7a0b\u5e08
p815
V\u5f00\u53d1\u5de5\u7a0b\u5e08
p816
sV\u5ba2\u52e4
p817
V\u5ba2\u670d\u7ecf\u7406
p818
sV\u4eea\u8868\u5e94\u7528\u5de5\u7a0b\u5e08
p819
V\u6280\u672f\u652f\u6301
p820
sV\u62db\u5c55\u4e3b\u4efb
p821
V\u5e02\u573a\u603b\u76d1
p822
sV\u5185\u52e4\u53ca\u7ed3\u7b97
p823
V\u4f1a\u8ba1
p824
sV\u8d44\u6750\u5de5\u7a0b\u5e08
p825
V\u8f6f\u4ef6\u6d4b\u8bd5
p826
sV\u7cfb\u7edf\u7ef4\u62a4\u5458
p827
V\u8f6f\u4ef6\u6d4b\u8bd5
p828
sV\u4fe1\u6258\u52a9\u7406
p829
V\u5ba2\u670d\u7ecf\u7406
p830
sV\u8ba1\u5212\u7269\u63a7
p831
V\u8f6f\u4ef6\u6d4b\u8bd5
p832
sV\u5927\u8f66\u8d37\u6b3e\u4e13\u5458
p833
V\u4f1a\u8ba1
p834
sV\u90e8\u54c1\u5de5\u7a0b\u5e08
p835
V\u91c7\u8d2d\u52a9\u7406
p836
sV\u5e97\u957f\u52a9\u7406
p837
V\u540e\u52e4\u4e13\u5458
p838
sV\u517c\u804c\u7406\u8d27\u5458
p839
V\u5ba2\u670d
p840
sVUI\u8bbe\u8ba1\u53ca\u5e73\u9762\u5468\u8fb9
p841
V\u8fd0\u8425\u4e13\u5458
p842
sV\u517c\u4efb\u603b\u7ecf\u7406\u52a9\u7406
p843
V\u8fd0\u8425\u4e13\u5458
p844
sV\u96c6\u56e2\u8d44\u91d1\u603b\u76d1
p845
V\u8d22\u52a1
p846
sV\u7535\u5f71\u9891\u9053\u7b56\u5212
p847
V\u8fd0\u8425\u7ecf\u7406
p848
sV\u7f51\u9500\u90e8\u4e3b\u7ba1
p849
V\u8fd0\u8425\u4e13\u5458
p850
sV\u8fde\u9501\u5e97\u5e97\u957f
p851
V\u8fd0\u8425\u4e13\u5458
p852
sV\u95ee\u5377\u8c03\u67e5\u5458
p853
V\u4f1a\u8ba1
p854
sV\u4eba\u8d44\u4f01\u7ba1\u8bfe\u8bfe\u957f
p855
V\u4eba\u529b\u8d44\u6e90\u7ecf\u7406
p856
sV\u7f51\u683c\u7ba1\u7406\u7ad9\u526f\u7ad9\u957f
p857
V\u9500\u552e\u7ecf\u7406
p858
sV\u6d88\u9632\u63a7\u5236\u4e2d\u5fc3\u4e3b\u7ba1
p859
V\u91c7\u8d2d\u603b\u76d1
p860
sV\u6280\u672f\u670d\u52a1\u5458
p861
V\u673a\u68b0\u5de5\u7a0b\u5e08
p862
sV\u603b\u88c1\u6267\u884c\u52a9\u7406
p863
V\u8fd0\u8425\u4e13\u5458
p864
sV\u4ea4\u6613\u5c97\u52a9\u7406
p865
V\u4f1a\u8ba1
p866
sV\u9a7b\u5382\u7ecf\u7406
p867
V\u4eba\u529b\u8d44\u6e90\u7ecf\u7406
p868
sV\u96f6\u552e\u7ba1\u7406\u5c97
p869
V\u9500\u552e\u7ecf\u7406
p870
sV\u5ba1\u6279\u4e13\u5458
p871
V\u8d22\u52a1
p872
sV\u7406\u8d22\u54a8\u8be2
p873
V\u9500\u552e\u7ecf\u7406
p874
sV\u6838\u4fdd\u7406\u8d54\u4e3b\u4efb
p875
V\u8fd0\u8425\u4e13\u5458
p876
sV\u4e92\u8054\u7f51\u4ea7\u54c1\u5de5\u7a0b\u5e08
p877
V\u6280\u672f\u652f\u6301
p878
sV\u534e\u4e1c\u5927\u533a\u57f9\u8bad\u52a9\u7406
p879
V\u4eba\u529b\u8d44\u6e90\u7ecf\u7406
p880
sV\u5546\u54c1\u7edf\u8ba1
p881
V\u4f1a\u8ba1
p882
sV\u4ea7\u54c1\u4e2d\u5fc3\u9ed1\u7535\u90e8\u95e8\u4e3b\u4efb
p883
V\u8fd0\u8425\u7ecf\u7406
p884
sV\u6295\u8d44\u90e8\u603b\u7ecf\u7406
p885
V\u5e02\u573a\u603b\u76d1
p886
sV\u54c1\u63a7\u4e3b\u7ba1
p887
V\u8d28\u91cf(QA/QC)
p888
sV\u4fe1\u606f\u5316\u4e2d\u5fc3\u4e3b\u7ba1
p889
V\u9879\u76ee\u7ecf\u7406
p890
sV\u571f\u5efa\u76d1\u7406\u5458
p891
V\u8d28\u91cf(QA/QC)
p892
sV\u8425\u4e1a\u79d1\u957f
p893
V\u9500\u552e\u7ecf\u7406
p894
sV\u8d28\u68c0\u5458DVP
p895
V\u8d28\u91cf(QA/QC)
p896
sV\u7269\u4e1a\u62db\u5546
p897
V\u9500\u552e\u7ecf\u7406
p898
sV\u7814\u53d1\u90e8
p899
V\u5f00\u53d1\u5de5\u7a0b\u5e08
p900
sV\u7167\u660e\u4ea7\u54c1\u7ed3\u6784\u5de5\u7a0b\u5e08
p901
V\u673a\u68b0\u5de5\u7a0b\u5e08
p902
sV\u7efc\u5408\u90e8\u4e3b\u4efb
p903
V\u4eba\u529b\u8d44\u6e90\u7ecf\u7406
p904
sV\u7ef4\u4fee\u4e0e\u6295\u8bc9\u7ecf\u7406
p905
V\u5ba2\u670d\u7ecf\u7406
p906
sV\u4eba\u624d\u641c\u7d22\u4e2d\u5fc3\u5b9e\u4e60\u751f
p907
V\u4eba\u529b\u8d44\u6e90\u4e13\u5458
p908
sV\u88c1\u5e8a\u8bfe\u957f
p909
V\u7269\u6d41\u603b\u76d1
p910
sV\u9ad8\u7ea7\u91c7\u9500\u7ecf\u7406
p911
V\u9500\u552e\u603b\u76d1
p912
sV\u64cd\u4f5c\u6587\u5458
p913
V\u673a\u68b0\u5de5\u7a0b\u5e08
p914
sV\u8463\u4e8b\u957f\u52a9\u7406\u517c\u7efc\u5408\u7ba1\u7406\u90e8\u7ecf\u7406
p915
V\u5e02\u573a\u7ecf\u7406
p916
sV\u538b\u88c2\u5de5\u7a0b\u5e08
p917
V\u5f00\u53d1\u5de5\u7a0b\u5e08
p918
sV\u5185\u63a7\u7ba1\u7406\u54a8\u8be2\u52a9\u7406
p919
V\u8d22\u52a1
p920
sV\u7763\u67e5\u7ecf\u7406
p921
V\u8fd0\u8425\u7ecf\u7406
p922
sV\u5de1\u5e97\u7763\u5bfc
p923
V\u8fd0\u8425\u4e13\u5458
p924
sV\u8d44\u4ea7\u5206\u6790\u4e13\u5458
p925
V\u8d22\u52a1
p926
sV\u515a\u653f\u529e\u516c\u5ba4\u8d1f\u8d23\u4eba
p927
V\u4eba\u529b\u8d44\u6e90\u4e13\u5458
p928
sV\u6570\u63a7\u8bbe\u5907\u64cd\u4f5c\u5458
p929
V\u673a\u68b0\u5de5\u7a0b\u5e08
p930
sV\u5916\u8054\u5f00\u53d1\u90e8\u7ecf\u7406
p931
V\u4eba\u529b\u8d44\u6e90\u7ecf\u7406
p932
sV\u8bbe\u5907\u90e8\u5e26\u73ed
p933
V\u673a\u68b0\u5de5\u7a0b\u5e08
p934
sV\u571f\u5efa\u4e3b\u7ba1\u5de5\u7a0b\u5e08
p935
V\u9879\u76ee\u7ecf\u7406
p936
sV\u4e1a\u52a1\u7ba1\u7406\u7ecf\u7406
p937
V\u8fd0\u8425\u4e13\u5458
p938
sV\u4f01\u7ba1\u5904\u957f
p939
V\u4eba\u529b\u8d44\u6e90\u7ecf\u7406
p940
sV\u6e56\u5357\u96f6\u552e\u7ecf\u7406
p941
V\u5e02\u573a\u7ecf\u7406
p942
sV\u7269\u4e1a\u524d\u53f0\u63a5\u5f85
p943
V\u5ba2\u670d
p944
sV\u8bbe\u5907\u7ecf\u7406
p945
V\u673a\u68b0\u5de5\u7a0b\u5e08
p946
sV\u94f6\u4fdd\u5185\u52e4
p947
V\u4eba\u529b\u8d44\u6e90\u7ecf\u7406
p948
sV\u9ad8\u7ea7\u5ba1\u8ba1\u5458
p949
V\u8d22\u52a1
p950
sVFE\u8bbe\u5907\u5de5\u7a0b\u5e08\uff08\u5f53\u73ed\u8d1f\u8d23\u4eba\uff09
p951
V\u6280\u672f\u652f\u6301
p952
sV\u8463\u4e8b\u957f\u52a9\u7406\u517c\u529e\u516c\u5ba4\u4e3b\u4efb
p953
V\u4eba\u529b\u8d44\u6e90\u7ecf\u7406
p954
sV\u670d\u52a1\u7763\u5bdf\u4e13\u5458
p955
V\u4eba\u529b\u8d44\u6e90\u4e13\u5458
p956
sV\u5355\u8bc1\u64cd\u4f5c
p957
V\u8d22\u52a1
p958
sV\u5e97\u957f\u79d8\u4e66
p959
V\u91c7\u8d2d\u603b\u76d1
p960
sV\u62db\u5546\u90e8\u603b\u76d1
p961
V\u5e02\u573a\u7ecf\u7406
p962
sV\u7b2c\u4e09\u4e8b\u4e1a\u4e2d\u5fc3\u603b\u76d1
p963
V\u8fd0\u8425\u603b\u76d1
p964
sV\u8d44\u4ea7\u8d1f\u503a\u7ba1\u7406
p965
V\u8d22\u52a1
p966
sV\u5a92\u4f53\u5173\u7cfb\u4e13\u5458
p967
V\u5e02\u573a\u4e13\u5458
p968
sV\u6258\u73ed\u8001\u5e08
p969
V\u673a\u68b0\u5de5\u7a0b\u5e08
p970
sV\u8054\u76df\u63a8\u5e7f\u4e3b\u7ba1
p971
V\u8fd0\u8425\u7ecf\u7406
p972
sV\u516c\u8bdd\u7ecf\u7406
p973
V\u5ba2\u670d\u7ecf\u7406
p974
sV\u80a1\u4e1c\u3001\u526f\u603b\u7ecf\u7406
p975
V\u9500\u552e\u603b\u76d1
p976
sV\u7efc\u5408\u529e\u516c\u5ba4\u526f\u4e3b\u4efb
p977
V\u4eba\u529b\u8d44\u6e90\u7ecf\u7406
p978
sV\u73b0\u573a\u7ba1\u7406\u90e8\u4e3b\u7ba1
p979
V\u8fd0\u8425\u7ecf\u7406
p980
sV\u5bb6\u75353C\u91c7\u9500\u603b\u76d1
p981
V\u91c7\u8d2d\u603b\u76d1
p982
sV\u6536\u8d39\u4e3b\u7ba1
p983
V\u8d22\u52a1
p984
sVERP\u603b\u5de5\u7a0b\u5e08
p985
V\u9879\u76ee\u7ecf\u7406
p986
sV\u9ad8\u7ea7\u57f9\u8bad\u5e08
p987
V\u5e02\u573a\u603b\u76d1
p988
sV\u4fe1\u606f\u4e2d\u5fc3\u4e3b\u4efb
p989
V\u9879\u76ee\u7ecf\u7406
p990
sV\u8f6f\u4ef6\u8bbe\u8ba1\u5e08
p991
V\u9879\u76ee\u7ecf\u7406
p992
sVAQM\u5de5\u7a0b\u5e08
p993
V\u8d28\u91cf(QA/QC)
p994
sV\u8f66\u52a1\u5916\u52e4
p995
V\u9500\u552e\u7ecf\u7406
p996
sV\u7ecf\u8425\u5206\u6790\u7ecf\u7406
p997
V\u9500\u552e\u603b\u76d1
p998
sV\u8d44\u4ea7\u5206\u6790\u5e08\u52a9\u7406
p999
V\u8d22\u52a1
p1000
sV\u56fd\u9645\u5546\u52a1\u7ecf\u7406\u517c\u603b\u7ecf\u7406\u52a9\u7406
p1001
V\u5e02\u573a\u7ecf\u7406
p1002
sV\u6c34\u7535\u5de5\u7a0b\u5e08
p1003
V\u9879\u76ee\u7ecf\u7406
p1004
sV\u7f51\u7ad9\u7b56\u5212\u8bbe\u8ba1\u5e08
p1005
V\u8fd0\u8425\u603b\u76d1
p1006
sV\u4ea7\u6210\u54c1\u7ba1\u7406\u5458
p1007
V\u8d22\u52a1
p1008
sV\u7ed3\u6784\u5de5\u7a0b\u56fe
p1009
V\u5f00\u53d1\u5de5\u7a0b\u5e08
p1010
sV\u91c7\u9500\u4e13\u5458
p1011
V\u8fd0\u8425\u4e13\u5458
p1012
sV\u5916\u6d3e\u5e97\u957f
p1013
V\u5ba2\u670d
p1014
sV\u9152\u5e97\u603b\u7ecf\u7406
p1015
V\u8fd0\u8425\u603b\u76d1
p1016
sV\u65b0\u5a92\u4f53\u90e8\u95e8\u7ecf\u7406
p1017
V\u8fd0\u8425\u4e13\u5458
p1018
sV\u524d\u53f0\u7ecf\u7406
p1019
V\u9500\u552e\u7ecf\u7406
p1020
sV\u9879\u76ee\u526f\u603b\u7ecf\u7406
p1021
V\u9879\u76ee\u7ecf\u7406
p1022
sV\u8bdd\u52a1\u7ba1\u7406\u5904\u79d1\u5458
p1023
V\u4eba\u529b\u8d44\u6e90\u4e13\u5458
p1024
sV\u529e\u4e8b\u5904\u8d1f\u8d23\u4eba
p1025
V\u4f1a\u8ba1
p1026
sV\u5bbf\u820d\u4e3b\u7ba1
p1027
V\u540e\u52e4\u4e13\u5458
p1028
sV\u4eba\u624d\u53d1\u5c55\u4e0e\u57f9\u8bad\u603b\u76d1
p1029
V\u4eba\u529b\u8d44\u6e90\u7ecf\u7406
p1030
sV\u5de5\u7a0b\u8bbe\u8ba1\u52a9\u7406\u5de5\u7a0b\u5e08
p1031
V\u4eba\u529b\u8d44\u6e90\u4e13\u5458
p1032
sV\u7ef4\u4fdd\u90e8\u7ecf\u7406
p1033
V\u8fd0\u8425\u7ecf\u7406
p1034
sV\u53a8\u5e08\u957f
p1035
V\u540e\u52e4\u4e13\u5458
p1036
sV\u7f51\u7edc\u63a8\u5e7f\u5458
p1037
V\u5f00\u53d1\u5de5\u7a0b\u5e08
p1038
sVNC\u5b9e\u65bd\u987e\u95ee
p1039
V\u4f1a\u8ba1
p1040
sV\u7b56\u5212\u90e8\u4f1a\u5c55\u4e13\u5458
p1041
V\u91c7\u8d2d\u7ecf\u7406
p1042
sV\u95e8\u5e97\u9009\u5740\u7ecf\u7406
p1043
V\u8fd0\u8425\u4e13\u5458
p1044
sV\u8d28\u68c0\u7ec4\u957f
p1045
V\u6280\u672f\u652f\u6301
p1046
sV\u6570\u503c\u7b56\u5212
p1047
V\u8fd0\u8425\u4e13\u5458
p1048
sV\u7ec4\u88c5\u8bfe\u526f\u8bfe\u957f
p1049
V\u751f\u4ea7\u7ecf\u7406
p1050
sV\u67dc\u5458\u53ca\u7efc\u5408\u4e1a\u52a1
p1051
V\u8d22\u52a1
p1052
sV\u5168\u7403\u4fe1\u606f\u5316\u7ecf\u7406
p1053
V\u9879\u76ee\u7ecf\u7406
p1054
sV\u65b0\u4ea7\u54c1\u5bfc\u5165\u5de5\u7a0b\u5e08
p1055
V\u5f00\u53d1\u5de5\u7a0b\u5e08
p1056
sV\u5408\u89c4\u7ecf\u7406
p1057
V\u9879\u76ee\u7ecf\u7406
p1058
sV\u4f01\u4e1a\u53d1\u5c55\u90e8\u526f\u4e3b\u4efb
p1059
V\u9879\u76ee\u7ecf\u7406
p1060
sV\u96c6\u56e2\u7efc\u5408\u7ba1\u7406\u4e2d\u5fc3\u603b\u7ecf\u7406
p1061
V\u4eba\u529b\u8d44\u6e90\u7ecf\u7406
p1062
sV\u5316\u5de5\u8bbe\u5907\u6280\u672f\u4e3b\u7ba1
p1063
V\u673a\u68b0\u5de5\u7a0b\u5e08
p1064
sV\u884c\u4e1a\u5206\u6790\u52a9\u7406
p1065
V\u4f1a\u8ba1
p1066
sV\u6cd5\u57f9\u4e13\u5458
p1067
V\u8fd0\u8425\u4e13\u5458
p1068
sV\u6f14\u51fa\u90e8\u7ecf\u7406
p1069
V\u8fd0\u8425\u603b\u76d1
p1070
sV\u4fe1\u7528\u63a7\u5236\u4e13\u5458
p1071
V\u4f1a\u8ba1
p1072
sV\u4eba\u8d44\u4e3b\u7ba1
p1073
V\u4eba\u529b\u8d44\u6e90\u7ecf\u7406
p1074
sVERP\u6280\u672f\u5458
p1075
V\u6280\u672f\u652f\u6301
p1076
sV\u98ce\u9669\u7ba1\u7406\u4e13\u5458
p1077
V\u4f1a\u8ba1
p1078
sV\u670d\u52a1\u5668\u5de5\u7a0b\u5e08
p1079
V\u5f00\u53d1\u5de5\u7a0b\u5e08
p1080
sV\u7ecf\u7406\u5e97\u957f
p1081
V\u9500\u552e\u603b\u76d1
p1082
sV\u4fdd\u969c\u90e8\u7ecf\u7406
p1083
V\u8fd0\u8425\u4e13\u5458
p1084
sV\u62db\u5546\u54c1\u7c7b\u7ecf\u7406
p1085
V\u91c7\u8d2d\u7ecf\u7406
p1086
sV\u7f51\u7edc\u62db\u5546\u4e3b\u7ba1
p1087
V\u8fd0\u8425\u4e13\u5458
p1088
sV\u51b0\u7bb1\u4ea7\u54c1\u526f\u7ecf\u7406
p1089
V\u5e02\u573a\u603b\u76d1
p1090
sV\u666f\u89c2\u8bbe\u8ba1\u5e08
p1091
V\u8fd0\u8425\u4e13\u5458
p1092
sV\u517c\u804c\u5e97\u957f
p1093
V\u540e\u52e4\u4e13\u5458
p1094
sV\u5065\u5eb7\u987e\u95ee
p1095
V\u9500\u552e\u7ecf\u7406
p1096
sV\u4e1a\u52a1\u64cd\u4f5c\u5458
p1097
V\u5ba2\u670d
p1098
sV\u5e93\u5b58\u7ec4\u957f
p1099
V\u5ba2\u670d
p1100
sV\u8f6f\u4ef6\u90e8\u7ecf\u7406
p1101
V\u5f00\u53d1\u5de5\u7a0b\u5e08
p1102
sV\u8239\u52a1\u4e3b\u4efb
p1103
V\u5ba2\u670d
p1104
sV\u56fd\u9645\u4e8b\u4e1a\u90e8\u6280\u672f\u90e8
p1105
V\u9500\u552e\u4e13\u5458
p1106
sV\u96f6\u552e\u4e8b\u4e1a\u90e8\u4e3b\u7ba1
p1107
V\u8fd0\u8425\u603b\u76d1
p1108
sV\u9879\u76ee\u63a8\u8fdb\u4e13\u5458
p1109
V\u751f\u4ea7\u4e13\u5458
p1110
sV\u5185\u8863\u8d44\u6df1\u987e\u95ee
p1111
V\u4eba\u529b\u8d44\u6e90\u4e13\u5458
p1112
sV\u94b3\u5de5\u5b9e\u4e60
p1113
V\u673a\u68b0\u5de5\u7a0b\u5e08
p1114
sV\u9910\u996e\u5a31\u4e50\u90e8\u7ecf\u7406
p1115
V\u8fd0\u8425\u603b\u76d1
p1116
sV\u7f51\u7edc\u4e8b\u4e1a\u90e8\u7f51\u7edc\u8fd0\u7ef4
p1117
V\u8fd0\u8425\u4e13\u5458
p1118
sV\u5c71\u4e1c\u7406\u5de5\u5927\u5b66\u6821\u6863\u6848\u7ba1\u7406\u7cfb\u7edf\u7ba1\u7406\u5458
p1119
V\u4eba\u529b\u8d44\u6e90\u4e13\u5458
p1120
sV\u4e3b\u4efb\u5de5\u7a0b\u5e08
p1121
V\u8d28\u91cf(QA/QC)
p1122
sV\u7efc\u5408\u4e8b\u52a1\u4e3b\u7ba1
p1123
V\u4eba\u529b\u8d44\u6e90\u7ecf\u7406
p1124
sV\u4ed3\u7ba1\u517c\u7edf\u8ba1
p1125
V\u4f1a\u8ba1
p1126
sV\u73ed\u8f66\u53f8\u673a
p1127
V\u540e\u52e4\u4e13\u5458
p1128
sV\u8425\u4e1a\u90e8\u526f\u7ecf\u7406
p1129
V\u5ba2\u670d\u7ecf\u7406
p1130
sV\u4ea7\u54c1\u89c4\u5212
p1131
V\u8f6f\u4ef6\u6d4b\u8bd5
p1132
sV\u79fb\u52a8\u4e92\u8054\u7f51\u5f00\u53d1
p1133
V\u5f00\u53d1\u5de5\u7a0b\u5e08
p1134
sV\u7ba1\u7406\u4e2d\u5fc3\u7ecf\u7406
p1135
V\u4eba\u529b\u8d44\u6e90\u7ecf\u7406
p1136
sV\u98df\u54c1\u90e8\u4e3b\u7ba1
p1137
V\u7269\u6d41\u603b\u76d1
p1138
sV\u603b\u5de5\u7a0b\u5e08\u517c\u526f\u603b\u7ecf\u7406
p1139
V\u751f\u4ea7\u603b\u76d1
p1140
sV\u7814\u53d1\u9879\u76ee\u5de5\u7a0b\u5e08
p1141
V\u5f00\u53d1\u5de5\u7a0b\u5e08
p1142
sV\u878d\u8d44\u878d\u5238\u4e13\u5458
p1143
V\u4f1a\u8ba1
p1144
sV\u7b7e\u8bc1\u987e\u95ee
p1145
V\u9500\u552e\u4e13\u5458
p1146
sV\u8bc1\u5238\u4ea4\u6613\u5458
p1147
V\u5e02\u573a\u4e13\u5458
p1148
sV\u7efc\u5408\u5ba1\u6279\u4e13\u5458
p1149
V\u4f1a\u8ba1
p1150
sV\u7535\u5546\u603b\u7ecf\u7406
p1151
V\u8fd0\u8425\u603b\u76d1
p1152
sV\u4fe1\u5ba1\u6587\u5458
p1153
V\u5ba2\u670d
p1154
sV\u9152\u5e97\u4e8b\u4e1a\u90e8\u4e0a\u7ebf\u4e13\u5458
p1155
V\u4eba\u529b\u8d44\u6e90\u4e13\u5458
p1156
sV\u5de5\u7a0b\u9020\u4ef7\u5458
p1157
V\u8f6f\u4ef6\u6d4b\u8bd5
p1158
sV\u76f4\u901a\u8f66\u63a8\u5e7f
p1159
V\u5ba2\u670d
p1160
sV\u8d44\u4fe1\u8c03\u67e5\u5458
p1161
V\u8d22\u52a1
p1162
sV\u9ad8\u7ea7\u5546\u52a1\u4e13\u5458
p1163
V\u9500\u552e\u603b\u76d1
p1164
sV\u63a2\u4f24\u6280\u672f\u5458
p1165
V\u9500\u552e\u7ecf\u7406
p1166
sV\u5185\u52e4\u7ecf\u7406
p1167
V\u9500\u552e\u7ecf\u7406
p1168
sV\u7814\u53d1\u526f\u6240\u957f
p1169
V\u5f00\u53d1\u5de5\u7a0b\u5e08
p1170
sV\u9648\u5217\u5458
p1171
V\u540e\u52e4\u4e13\u5458
p1172
sV\u7269\u6599\u7763\u5bfc
p1173
V\u7269\u6d41\u4e13\u5458
p1174
sV\u8003\u6838\u5206\u914d\u7ba1\u7406\u5c97
p1175
V\u4eba\u529b\u8d44\u6e90\u4e13\u5458
p1176
sV\u8d44\u6750\u8bfe\u8bfe\u957f
p1177
V\u8d22\u52a1
p1178
sV\u76f4\u8425\u5e97\u5e97\u957f/\u62db\u5546\u4e13\u5458
p1179
V\u8fd0\u8425\u7ecf\u7406
p1180
sV\u653f\u5e9c\u884c\u4e1a\u90e8\u603b\u7ecf\u7406
p1181
V\u9500\u552e\u603b\u76d1
p1182
sV\u5206\u4f1a\u4e3b\u5e2d
p1183
V\u4eba\u529b\u8d44\u6e90\u7ecf\u7406
p1184
sV\u6dd8\u5b9d\u5e97\u4e3b\u53ca\u81ea\u8425\u5e97\u4e3b
p1185
V\u4eba\u529b\u8d44\u6e90\u4e13\u5458
p1186
sV\u8d44\u91d1\u7efc\u5408\u4e3b\u7ba1
p1187
V\u4f1a\u8ba1
p1188
sV\u7406\u8d54\u5458
p1189
V\u5ba2\u670d
p1190
sV\u5408\u5e76\u62a5\u8868\u6838\u7b97\u4e3b\u7ba1
p1191
V\u4f1a\u8ba1
p1192
sV\u897f\u5357\u7ba1\u7406\u5e73\u53f0\u6267\u884c\u603b\u76d1
p1193
V\u4eba\u529b\u8d44\u6e90\u4e13\u5458
p1194
sV\u7f51\u7edc\u63a8\u5e7f\u4e0e\u5e73\u9762\u8bbe\u8ba1
p1195
V\u5ba2\u670d\u7ecf\u7406
p1196
sV\u89c6\u5149\u5e08
p1197
V\u9500\u552e\u7ecf\u7406
p1198
sV\u76d1\u4e8b\u4f1a\u76d1\u4e8b
p1199
V\u4eba\u529b\u8d44\u6e90\u7ecf\u7406
p1200
sV\u5317\u4eac\u529e\u4e8b\u5904\u7ecf\u7406
p1201
V\u9500\u552e\u603b\u76d1
p1202
sV\u6280\u672f\u4fdd\u969c
p1203
V\u6280\u672f\u652f\u6301
p1204
sV\u6280\u6539\u5de5\u7a0b\u5e08
p1205
V\u673a\u68b0\u5de5\u7a0b\u5e08
p1206
sV\u7248\u6743\u9ad8\u7ea7\u7ecf\u7406
p1207
V\u9879\u76ee\u7ecf\u7406
p1208
sV\u76f4\u8425\u5e97\u7ecf\u7406
p1209
V\u9500\u552e\u603b\u76d1
p1210
sV\u4e8b\u4e1a\u90e8\u5927\u5ba2\u6237\u90e8\u90e8\u957f
p1211
V\u91c7\u8d2d\u603b\u76d1
p1212
sV\u62a5\u7a0e\u4e13\u5458
p1213
V\u4f1a\u8ba1
p1214
sV\u96c6\u56e2\u516c\u53f8\u526f\u603b\u7ecf\u7406
p1215
V\u4eba\u529b\u8d44\u6e90\u4e13\u5458
p1216
sV\u7f51\u7edc\u5efa\u8bbe\u9879\u76ee\u52a9\u7406
p1217
V\u4eba\u529b\u8d44\u6e90\u4e13\u5458
p1218
sV\u5a92\u8d44\u4e13\u5458
p1219
V\u8fd0\u8425\u4e13\u5458
p1220
sV\u8bc4\u4f30\u52a9\u7406
p1221
V\u5ba2\u670d
p1222
sV\u68c0\u6d4b\u5de5\u7a0b\u5e08
p1223
V\u5ba2\u670d\u7ecf\u7406
p1224
sV\u7f51\u9875\u7f16\u8f91
p1225
V\u4f1a\u8ba1
p1226
sVFAE\u526f\u7ecf\u7406
p1227
V\u8f6f\u4ef6\u6d4b\u8bd5
p1228
sV\u8f6f\u4ef6\u5b9e\u65bd\u987e\u95ee
p1229
V\u4eba\u529b\u8d44\u6e90\u4e13\u5458
p1230
sV\u63a8\u5e7f\u90e8\u90e8\u957f
p1231
V\u8fd0\u8425\u603b\u76d1
p1232
sV\u8ba1\u5212\u7ba1\u7406\u5ba4\u4e3b\u4efb
p1233
V\u5e02\u573a\u603b\u76d1
p1234
sV\u7535\u5382\u68c0\u4fee
p1235
V\u5ba2\u670d\u7ecf\u7406
p1236
sV\u6280\u672f\u5de5\u7a0b\u90e8
p1237
V\u5f00\u53d1\u5de5\u7a0b\u5e08
p1238
sV\u8003\u6838\u5de5\u7a0b\u5e08
p1239
V\u4eba\u529b\u8d44\u6e90\u4e13\u5458
p1240
sV\u7b56\u5212\u4e13\u5458\u517c\u8bbe\u8ba1\u6307\u5bfc
p1241
V\u5e02\u573a\u4e13\u5458
p1242
sV\u4ea7\u54c1\u5236\u4f5c\u5458
p1243
V\u8d22\u52a1
p1244
sV\u62db\u5546\u90e8\u957f
p1245
V\u9500\u552e\u603b\u76d1
p1246
sV\u552e\u540e\u670d\u52a1\u6280\u672f\u5458
p1247
V\u5ba2\u670d
p1248
sV\u8d44\u91d1\u7ecf\u7406
p1249
V\u8d22\u52a1
p1250
sVIDC\u8fd0\u7ef4\u5de5\u7a0b\u5e08
p1251
V\u6280\u672f\u652f\u6301
p1252
sV\u96c6\u88c5\u7bb1\u4e1a\u52a1\u4e3b\u7ba1
p1253
V\u9500\u552e\u7ecf\u7406
p1254
sV\u4e8b\u4e1a\u5355\u4f4d\u4eba\u5458
p1255
V\u4eba\u529b\u8d44\u6e90\u4e13\u5458
p1256
sV\u79fb\u52a8\u901a\u4fe1\u5de5\u7a0b\u5e08
p1257
V\u8f6f\u4ef6\u6d4b\u8bd5
p1258
sV\u7b7e\u8bc1\u4e1a\u52a1\u73ed\u91cc
p1259
V\u8fd0\u8425\u4e13\u5458
p1260
sV\u4fe1\u606f\u5de5\u7a0b\u76d1\u7406
p1261
V\u9879\u76ee\u7ecf\u7406
p1262
sV\u9152\u5e97\u65c5\u6e38\u9879\u76ee\u603b\u7ecf\u7406
p1263
V\u8fd0\u8425\u4e13\u5458
p1264
sV\u51b2\u538b\u5de5\u827a\u5458
p1265
V\u751f\u4ea7\u4e13\u5458
p1266
sVDSP\u79d1\u79d1\u957f
p1267
V\u9879\u76ee\u7ecf\u7406
p1268
sV\u7efc\u5408\u67dc\u5458
p1269
V\u8fd0\u8425\u7ecf\u7406
p1270
sV\u94f6\u884c\u5361\u5dee\u9519\u5904\u7406
p1271
V\u8fd0\u8425\u4e13\u5458
p1272
sV\u8c03\u8272\u5458
p1273
V\u7269\u6d41\u4e13\u5458
p1274
sV\u8bbe\u8ba1\u603b\u76d1
p1275
V\u9879\u76ee\u7ecf\u7406
p1276
sV\u7efc\u5408\u90e8\u4e3b\u7ba1\u517c\u5916\u8d38\u7ffb\u8bd1
p1277
V\u4eba\u529b\u8d44\u6e90\u7ecf\u7406
p1278
sV\u897f\u5317\u5927\u533a\u603b\u76d1
p1279
V\u9500\u552e\u603b\u76d1
p1280
sV\u8425\u8fd0\u526f\u603b\u7ecf\u7406
p1281
V\u8fd0\u8425\u603b\u76d1
p1282
sV\u8d28\u68c0\u5e72\u4e8b
p1283
V\u4eba\u529b\u8d44\u6e90\u4e13\u5458
p1284
sV\u5de5\u7a0b\u7ba1\u7406\u90e8\u603b\u76d1
p1285
V\u9500\u552e\u603b\u76d1
p1286
sV\u52b3\u52a8\u4fdd\u969c\u4e13\u5458
p1287
V\u8d22\u52a1
p1288
sV\u5ba2\u6237\u90e8\u73ed\u957f
p1289
V\u5ba2\u670d
p1290
sV\u50a8\u84c4\u67dc\u7ec4\u957f
p1291
V\u8fd0\u8425\u7ecf\u7406
p1292
sV\u4f01\u4e1a\u7ba1\u7406\u90e8\u526f\u90e8\u957f
p1293
V\u4eba\u529b\u8d44\u6e90\u7ecf\u7406
p1294
sV\u5927\u533a\u63a8\u8fdb\u7ecf\u7406
p1295
V\u9500\u552e\u7ecf\u7406
p1296
sV\u8bbe\u5907\u52a8\u529b\u4e3b\u7ba1
p1297
V\u673a\u68b0\u5de5\u7a0b\u5e08
p1298
sV\u9ad8\u7ea7\u5ba1\u8ba1\u5e08
p1299
V\u4f1a\u8ba1
p1300
sV\u96c6\u56e2\u5546\u4e1a\u9879\u76ee\u7b56\u5212\u603b\u76d1
p1301
V\u5e02\u573a\u7ecf\u7406
p1302
sV\u4e0a\u6d77\u529e\u4e8b\u5904\u7ecf\u7406
p1303
V\u9500\u552e\u7ecf\u7406
p1304
sV\u7f51\u7edc\u8425\u9500\u5e08
p1305
V\u8fd0\u8425\u4e13\u5458
p1306
sVLinux\u8fd0\u7ef4\u5de5\u7a0b\u5e08
p1307
V\u6280\u672f\u652f\u6301
p1308
sV\u8d44\u6df1\u521b\u610f\u6587\u6848
p1309
V\u5e02\u573a\u4e13\u5458
p1310
sV\u96c6\u56e2\u9879\u76ee\u90e8\u603b\u76d1
p1311
V\u8fd0\u8425\u4e13\u5458
p1312
sV\u56e2\u961f\u7ecf\u7406
p1313
V\u9500\u552e\u7ecf\u7406
p1314
sV\u914d\u5957\u5de5\u7a0b\u5e08
p1315
V\u5ba2\u670d\u7ecf\u7406
p1316
sV\u6570\u636e\u4e0e\u6d41\u7a0b\u5206\u6790\u5e08
p1317
V\u9879\u76ee\u7ecf\u7406
p1318
sV\u8d22\u4f1a\u7ecf\u7406
p1319
V\u4f1a\u8ba1
p1320
sV\u534e\u4e1c\u5206\u516c\u53f8\u7ecf\u7406
p1321
V\u5e02\u573a\u7ecf\u7406
p1322
sV\u6750\u6599\u7edf\u8ba1
p1323
V\u4f1a\u8ba1
p1324
sV\u653f\u5e9c\u516c\u5173\u90e8\u52a9\u7406
p1325
V\u4eba\u529b\u8d44\u6e90\u4e13\u5458
p1326
sV\u4e13\u6848\u7ec4\u957f
p1327
V\u673a\u68b0\u5de5\u7a0b\u5e08
p1328
sV\u4f01\u7ba1\u90e8\u526f\u7ecf\u7406
p1329
V\u4eba\u529b\u8d44\u6e90\u4e13\u5458
p1330
sV\u5916\u547c\u7ec4\u957f
p1331
V\u5ba2\u670d
p1332
sV\u6295\u8d44\u7ecf\u7406\u517c\u8463\u4e8b\u957f\u52a9\u7406
p1333
V\u4eba\u529b\u8d44\u6e90\u7ecf\u7406
p1334
sV\u603b\u7ecf\u7406\u52a9\u7406\u517c\u4f01\u7ba1\u90e8\u90e8\u957f
p1335
V\u4eba\u529b\u8d44\u6e90\u7ecf\u7406
p1336
sV\u7535\u68af\u7ef4\u4fee
p1337
V\u540e\u52e4\u4e13\u5458
p1338
sV\u571f\u5efa\u5de5\u7a0b\u5e08\u52a9\u7406
p1339
V\u8fd0\u8425\u4e13\u5458
p1340
sV\u5408\u540c\u6267\u884c\u7ecf\u7406
p1341
V\u9500\u552e\u7ecf\u7406
p1342
sV\u5e7f\u5dde\u529e\u4e8b\u5904
p1343
V\u5e02\u573a\u603b\u76d1
p1344
sV\u5e97\u7ecf\u7406\u52a9\u7406\u517c\u6536\u94f6
p1345
V\u4eba\u529b\u8d44\u6e90\u4e13\u5458
p1346
sV\u673a\u52a0\u5de5\u827a\u5458
p1347
V\u673a\u68b0\u5de5\u7a0b\u5e08
p1348
sVH5\u4ea7\u54c1\u7ecf\u7406
p1349
V\u8fd0\u8425\u7ecf\u7406
p1350
sVKFC\u526f\u7406
p1351
V\u9500\u552e\u7ecf\u7406
p1352
sV\u5f00\u53d1\u53ca\u6570\u636e\u7ba1\u7406\u5c97
p1353
V\u9879\u76ee\u7ecf\u7406
p1354
sV\u57f9\u8bad\u4e3b\u7ba1\u517c\u6cd5\u52a1
p1355
V\u4eba\u529b\u8d44\u6e90\u7ecf\u7406
p1356
sV\u5bbf\u7ba1\u8001\u5e08
p1357
V\u540e\u52e4\u4e13\u5458
p1358
sV\u5de5\u7a0b\u526f\u603b
p1359
V\u9879\u76ee\u7ecf\u7406
p1360
sVDBA\u5de5\u7a0b\u5e08
p1361
V\u5f00\u53d1\u5de5\u7a0b\u5e08
p1362
sV\u9ad8\u7ea7\u7ba1\u7406\u987e\u95ee
p1363
V\u8fd0\u8425\u603b\u76d1
p1364
sV\u8fde\u9501\u52a0\u76df\u7ecf\u7406
p1365
V\u8fd0\u8425\u7ecf\u7406
p1366
sV\u524d\u53f0\u63a5\u5f85
p1367
V\u5ba2\u670d
p1368
sV\u4f9b\u5e94\u8ba1\u5212\u4e13\u5458
p1369
V\u91c7\u8d2d\u52a9\u7406
p1370
sV\u9910\u996e\u90e8\u603b\u76d1
p1371
V\u8fd0\u8425\u603b\u76d1
p1372
sV\u6536\u8d27\u4e3b\u7ba1
p1373
V\u7269\u6d41\u7ecf\u7406
p1374
sV\u6302\u804c\u5b9e\u4e60\u751f
p1375
V\u4eba\u529b\u8d44\u6e90\u4e13\u5458
p1376
sV\u5546\u52a1\u4e2d\u5fc3\u6587\u5458
p1377
V\u4eba\u529b\u8d44\u6e90\u4e13\u5458
p1378
sV\u8ba1\u5212\u63a7\u5236\u4e3b\u7ba1
p1379
V\u5ba2\u670d
p1380
sV\u4ea7\u54c1\u6280\u672f\u5de5\u7a0b\u5e08
p1381
V\u5f00\u53d1\u5de5\u7a0b\u5e08
p1382
sV\u7ec4\u88c5\u5de5\u6bb5\u6bb5\u957f
p1383
V\u673a\u68b0\u5de5\u7a0b\u5e08
p1384
sV\u4e13\u5229\u5206\u6790\u5e08\u5b9e\u4e60\u751f
p1385
V\u9500\u552e\u7ecf\u7406
p1386
sV\u8fd0\u7ef4\u5ba2\u6237\u90e8\u7ecf\u7406
p1387
V\u8fd0\u8425\u4e13\u5458
p1388
sV\u70ed\u63a7\u4e13\u5de5
p1389
V\u9879\u76ee\u7ecf\u7406
p1390
sV\u5a5a\u604b\u987e\u95ee
p1391
V\u5ba2\u670d
p1392
sV\u706f\u68c0
p1393
V\u8d28\u91cf(QA/QC)
p1394
sV\u72ec\u7acb\u5ba1\u67e5\u4eba
p1395
V\u8d22\u52a1
p1396
sV\u827a\u672f\u603b\u76d1
p1397
V\u9500\u552e\u7ecf\u7406
p1398
s.