(dp0
I1999
I1000
sI2000
I3000
sI2001
I3000
sI2002
I3000
sI2003
I3000
sI2004
I3000
sI2005
I3000
sI2006
I3000
sI2007
I3000
sI2008
I3000
sI2009
I3000
sI2010
I3000
sI2011
I3000
sI2012
I5000
sI2013
I5000
sI2014
I5000
sI2015
I5000
s.