(dp0
V\u751f\u4ea7\u4e13\u5458
p1
(dp2
I1999
(lp3
I1000
asI2000
(lp4
I3000
asI2001
(lp5
I3000
asI2002
(lp6
I3000
asI2003
(lp7
I3000
asI2004
(lp8
I3000
asI2005
(lp9
I3000
asI2006
(lp10
I3000
asI2007
(lp11
I3000
asI2008
(lp12
I3000
asI2009
(lp13
I3000
asI2010
(lp14
I3000
asI2011
(lp15
I3000
asI2012
(lp16
I3000
asI2013
(lp17
I5000
asI2014
(lp18
I5000
asI2015
(lp19
I7000
assV\u540e\u52e4\u4e3b\u7ba1
p20
(dp21
I2000
(lp22
I1000
asI2002
(lp23
I9000
asI2004
(lp24
I3000
asI2006
(lp25
I1000
asI2008
(lp26
I15000
asI2009
(lp27
I2000
asI2010
(lp28
I5000
asI2011
(lp29
I3000
asI2012
(lp30
I5000
asI2013
(lp31
I5000
asI2014
(lp32
I4000
asI2015
(lp33
I5000
assV\u9500\u552e\u603b\u76d1
p34
(dp35
I1999
(lp36
I7000
asI2000
(lp37
I5000
asI2001
(lp38
I6000
asI2002
(lp39
I8000
asI2003
(lp40
I9000
asI2004
(lp41
I5000
asI2005
(lp42
I7000
asI2006
(lp43
I7000
asI2007
(lp44
I8000
asI2008
(lp45
I9000
asI2009
(lp46
I9000
asI2010
(lp47
I9000
asI2011
(lp48
I9000
asI2012
(lp49
I9000
asI2013
(lp50
I9000
asI2014
(lp51
I15000
asI2015
(lp52
I15000
assV\u9500\u552e\u7ecf\u7406
p53
(dp54
I1999
(lp55
I3000
asI2000
(lp56
I3000
asI2001
(lp57
I3000
asI2002
(lp58
I3000
asI2003
(lp59
I3000
asI2004
(lp60
I3000
asI2005
(lp61
I3000
asI2006
(lp62
I5000
asI2007
(lp63
I5000
asI2008
(lp64
I5000
asI2009
(lp65
I5000
asI2010
(lp66
I5000
asI2011
(lp67
I5000
asI2012
(lp68
I5000
asI2013
(lp69
I5000
asI2014
(lp70
I5000
asI2015
(lp71
I7000
assV\u52a9\u7406\u7c7b
p72
(dp73
I1999
(lp74
I1000
asI2000
(lp75
I1000
asI2001
(lp76
I3000
asI2002
(lp77
I3000
asI2003
(lp78
I3000
asI2004
(lp79
I3000
asI2005
(lp80
I3000
asI2006
(lp81
I3000
asI2007
(lp82
I3000
asI2008
(lp83
I3000
asI2009
(lp84
I3000
asI2010
(lp85
I3000
asI2011
(lp86
I3000
asI2012
(lp87
I3000
asI2013
(lp88
I3000
asI2014
(lp89
I3000
asI2015
(lp90
I5000
assV\u5916\u8d38\u7c7b
p91
(dp92
I1999
(lp93
I10500
asI2002
(lp94
I3000
asI2003
(lp95
I3000
asI2004
(lp96
I3000
asI2005
(lp97
I3000
asI2006
(lp98
I5000
asI2007
(lp99
I3000
asI2008
(lp100
I3000
asI2009
(lp101
I3000
asI2010
(lp102
I3000
asI2011
(lp103
I3000
asI2012
(lp104
I3000
asI2013
(lp105
I3000
asI2014
(lp106
I3000
asI2015
(lp107
I3000
assV\u6587\u5458\u7c7b
p108
(dp109
I1999
(lp110
I1000
asI2000
(lp111
I1000
asI2001
(lp112
I2000
asI2002
(lp113
I1000
asI2003
(lp114
I1000
asI2004
(lp115
I1000
asI2005
(lp116
I1000
asI2006
(lp117
I1000
asI2007
(lp118
I1000
asI2008
(lp119
I1000
asI2009
(lp120
I1000
asI2010
(lp121
I1000
asI2011
(lp122
I3000
asI2012
(lp123
I3000
asI2013
(lp124
I3000
asI2014
(lp125
I3000
asI2015
(lp126
I3000
assV\u6280\u672f\u652f\u6301
p127
(dp128
I1999
(lp129
I1000
asI2000
(lp130
I1000
asI2001
(lp131
I3000
asI2002
(lp132
I3000
asI2003
(lp133
I3000
asI2004
(lp134
I3000
asI2005
(lp135
I3000
asI2006
(lp136
I3000
asI2007
(lp137
I3000
asI2008
(lp138
I3000
asI2009
(lp139
I3000
asI2010
(lp140
I3000
asI2011
(lp141
I3000
asI2012
(lp142
I3000
asI2013
(lp143
I3000
asI2014
(lp144
I5000
asI2015
(lp145
I5000
assV\u4eba\u529b\u8d44\u6e90\u7ecf\u7406
p146
(dp147
I1999
(lp148
I3000
asI2000
(lp149
I5000
asI2001
(lp150
I3000
asI2002
(lp151
I3000
asI2003
(lp152
I5000
asI2004
(lp153
I5000
asI2005
(lp154
I5000
asI2006
(lp155
I5000
asI2007
(lp156
I5000
asI2008
(lp157
I5000
asI2009
(lp158
I5000
asI2010
(lp159
I5000
asI2011
(lp160
I5000
asI2012
(lp161
I5000
asI2013
(lp162
I5000
asI2014
(lp163
I5000
asI2015
(lp164
I7000
assV\u7269\u6d41\u603b\u76d1
p165
(dp166
I2001
(lp167
I1000
asI2004
(lp168
I7000
asI2005
(lp169
I5000
asI2006
(lp170
I12000
asI2007
(lp171
I13500
asI2009
(lp172
I7000
asI2010
(lp173
I9000
asI2011
(lp174
I5000
asI2012
(lp175
I9000
asI2013
(lp176
I8000
asI2014
(lp177
I15000
asI2015
(lp178
I15000
assV\u7269\u6d41\u4e13\u5458
p179
(dp180
I1999
(lp181
I1000
asI2000
(lp182
I1000
asI2001
(lp183
I1000
asI2002
(lp184
I3000
asI2003
(lp185
I3000
asI2004
(lp186
I1000
asI2005
(lp187
I3000
asI2006
(lp188
I3000
asI2007
(lp189
I3000
asI2008
(lp190
I3000
asI2009
(lp191
I3000
asI2010
(lp192
I3000
asI2011
(lp193
I3000
asI2012
(lp194
I3000
asI2013
(lp195
I3000
asI2014
(lp196
I3000
asI2015
(lp197
I3000
assV\u91c7\u8d2d\u603b\u76d1
p198
(dp199
I1999
(lp200
I7000
asI2001
(lp201
I20000
asI2004
(lp202
I7000
asI2006
(lp203
I5000
asI2007
(lp204
I7000
asI2008
(lp205
I17500
asI2009
(lp206
I7000
asI2010
(lp207
I9000
asI2011
(lp208
I15000
asI2012
(lp209
I15000
asI2013
(lp210
I15000
asI2014
(lp211
I15000
asI2015
(lp212
I15000
assV\u4eba\u529b\u8d44\u6e90\u4e13\u5458
p213
(dp214
I1999
(lp215
I1000
asI2000
(lp216
I1000
asI2001
(lp217
I1000
asI2002
(lp218
I2000
asI2003
(lp219
I3000
asI2004
(lp220
I3000
asI2005
(lp221
I3000
asI2006
(lp222
I3000
asI2007
(lp223
I3000
asI2008
(lp224
I3000
asI2009
(lp225
I3000
asI2010
(lp226
I3000
asI2011
(lp227
I3000
asI2012
(lp228
I3000
asI2013
(lp229
I3000
asI2014
(lp230
I3000
asI2015
(lp231
I5000
assV\u5e02\u573a\u7ecf\u7406
p232
(dp233
I1999
(lp234
I3000
asI2000
(lp235
I4000
asI2001
(lp236
I4000
asI2002
(lp237
I4000
asI2003
(lp238
I5000
asI2004
(lp239
I5000
asI2005
(lp240
I5000
asI2006
(lp241
I5000
asI2007
(lp242
I5000
asI2008
(lp243
I5000
asI2009
(lp244
I7000
asI2010
(lp245
I5000
asI2011
(lp246
I7000
asI2012
(lp247
I7000
asI2013
(lp248
I7000
asI2014
(lp249
I7000
asI2015
(lp250
I9000
assV\u6280\u672f\u7c7b
p251
(dp252
I1999
(lp253
I1000
asI2000
(lp254
I1000
asI2001
(lp255
I3000
asI2002
(lp256
I3000
asI2003
(lp257
I3000
asI2004
(lp258
I3000
asI2005
(lp259
I3000
asI2006
(lp260
I3000
asI2007
(lp261
I3000
asI2008
(lp262
I3000
asI2009
(lp263
I3000
asI2010
(lp264
I3000
asI2011
(lp265
I3000
asI2012
(lp266
I5000
asI2013
(lp267
I5000
asI2014
(lp268
I5000
asI2015
(lp269
I5000
assV\u5176\u4ed6
p270
(dp271
I1999
(lp272
I1000
asI2000
(lp273
I1000
asI2001
(lp274
I1000
asI2002
(lp275
I3000
asI2003
(lp276
I1000
asI2004
(lp277
I2000
asI2005
(lp278
I3000
asI2006
(lp279
I3000
asI2007
(lp280
I3000
asI2008
(lp281
I3000
asI2009
(lp282
I3000
asI2010
(lp283
I3000
asI2011
(lp284
I3000
asI2012
(lp285
I3000
asI2013
(lp286
I3000
asI2014
(lp287
I3000
asI2015
(lp288
I5000
assV\u5e02\u573a\u603b\u76d1
p289
(dp290
I1999
(lp291
I10500
asI2000
(lp292
I20000
asI2001
(lp293
I5000
asI2002
(lp294
I7000
asI2003
(lp295
I9000
asI2004
(lp296
I15000
asI2005
(lp297
I9000
asI2006
(lp298
I7000
asI2007
(lp299
I9000
asI2008
(lp300
I9000
asI2009
(lp301
I9000
asI2010
(lp302
I15000
asI2011
(lp303
I15000
asI2012
(lp304
I15000
asI2013
(lp305
I15000
asI2014
(lp306
I15000
asI2015
(lp307
I15000
assV\u7ecf\u7406\u7c7b
p308
(dp309
I1999
(lp310
I3000
asI2000
(lp311
I3000
asI2001
(lp312
I3000
asI2002
(lp313
I3000
asI2003
(lp314
I3000
asI2004
(lp315
I5000
asI2005
(lp316
I5000
asI2006
(lp317
I5000
asI2007
(lp318
I5000
asI2008
(lp319
I5000
asI2009
(lp320
I5000
asI2010
(lp321
I7000
asI2011
(lp322
I7000
asI2012
(lp323
I7000
asI2013
(lp324
I7000
asI2014
(lp325
I7000
asI2015
(lp326
I9000
assV\u8f6f\u4ef6\u6d4b\u8bd5
p327
(dp328
I1999
(lp329
I4000
asI2000
(lp330
I5000
asI2001
(lp331
I3000
asI2002
(lp332
I3000
asI2003
(lp333
I3000
asI2004
(lp334
I3000
asI2005
(lp335
I3000
asI2006
(lp336
I3000
asI2007
(lp337
I3000
asI2008
(lp338
I3000
asI2009
(lp339
I5000
asI2010
(lp340
I3000
asI2011
(lp341
I5000
asI2012
(lp342
I5000
asI2013
(lp343
I5000
asI2014
(lp344
I5000
asI2015
(lp345
I7000
assV\u91c7\u8d2d\u52a9\u7406
p346
(dp347
I1999
(lp348
I1000
asI2000
(lp349
I3000
asI2001
(lp350
I1000
asI2002
(lp351
I3000
asI2003
(lp352
I3000
asI2004
(lp353
I3000
asI2005
(lp354
I3000
asI2006
(lp355
I3000
asI2007
(lp356
I3000
asI2008
(lp357
I3000
asI2009
(lp358
I3000
asI2010
(lp359
I3000
asI2011
(lp360
I3000
asI2012
(lp361
I3000
asI2013
(lp362
I3000
asI2014
(lp363
I3000
asI2015
(lp364
I5000
assV\u9879\u76ee\u7ecf\u7406
p365
(dp366
I1999
(lp367
I3000
asI2000
(lp368
I3000
asI2001
(lp369
I4000
asI2002
(lp370
I5000
asI2003
(lp371
I5000
asI2004
(lp372
I5000
asI2005
(lp373
I5000
asI2006
(lp374
I5000
asI2007
(lp375
I7000
asI2008
(lp376
I7000
asI2009
(lp377
I7000
asI2010
(lp378
I7000
asI2011
(lp379
I7000
asI2012
(lp380
I7000
asI2013
(lp381
I7000
asI2014
(lp382
I9000
asI2015
(lp383
I9000
assV\u8d22\u52a1
p384
(dp385
I1999
(lp386
I1000
asI2000
(lp387
I3000
asI2001
(lp388
I3000
asI2002
(lp389
I3000
asI2003
(lp390
I3000
asI2004
(lp391
I3000
asI2005
(lp392
I3000
asI2006
(lp393
I5000
asI2007
(lp394
I5000
asI2008
(lp395
I5000
asI2009
(lp396
I5000
asI2010
(lp397
I5000
asI2011
(lp398
I5000
asI2012
(lp399
I5000
asI2013
(lp400
I5000
asI2014
(lp401
I5000
asI2015
(lp402
I7000
assV\u751f\u4ea7\u7ecf\u7406
p403
(dp404
I1999
(lp405
I3000
asI2000
(lp406
I3000
asI2001
(lp407
I3000
asI2002
(lp408
I5000
asI2003
(lp409
I3000
asI2004
(lp410
I3000
asI2005
(lp411
I5000
asI2006
(lp412
I5000
asI2007
(lp413
I5000
asI2008
(lp414
I5000
asI2009
(lp415
I5000
asI2010
(lp416
I5000
asI2011
(lp417
I5000
asI2012
(lp418
I7000
asI2013
(lp419
I7000
asI2014
(lp420
I7000
asI2015
(lp421
I7000
assV\u603b\u7ecf\u7406\u7c7b
p422
(dp423
I1999
(lp424
I5000
asI2000
(lp425
I9000
asI2001
(lp426
I5000
asI2002
(lp427
I10000
asI2003
(lp428
I7000
asI2004
(lp429
I7000
asI2005
(lp430
I7000
asI2006
(lp431
I15000
asI2007
(lp432
I15000
asI2008
(lp433
I9000
asI2009
(lp434
I15000
asI2010
(lp435
I15000
asI2011
(lp436
I15000
asI2012
(lp437
I15000
asI2013
(lp438
I15000
asI2014
(lp439
I15000
asI2015
(lp440
I20000
assV\u5e97\u957f\u7c7b
p441
(dp442
I1999
(lp443
I2000
asI2000
(lp444
I2000
asI2001
(lp445
I2000
asI2002
(lp446
I3000
asI2003
(lp447
I3000
asI2004
(lp448
I3000
asI2005
(lp449
I3000
asI2006
(lp450
I3000
asI2007
(lp451
I3000
asI2008
(lp452
I3000
asI2009
(lp453
I3000
asI2010
(lp454
I3000
asI2011
(lp455
I3000
asI2012
(lp456
I3000
asI2013
(lp457
I5000
asI2014
(lp458
I5000
asI2015
(lp459
I5000
assV\u8fd0\u8425\u7ecf\u7406
p460
(dp461
I2001
(lp462
I7000
asI2002
(lp463
I3000
asI2003
(lp464
I11000
asI2004
(lp465
I8000
asI2005
(lp466
I4000
asI2006
(lp467
I5000
asI2007
(lp468
I6000
asI2008
(lp469
I5000
asI2009
(lp470
I7000
asI2010
(lp471
I5000
asI2011
(lp472
I7000
asI2012
(lp473
I7000
asI2013
(lp474
I7000
asI2014
(lp475
I7000
asI2015
(lp476
I9000
assV\u6559\u80b2\u7c7b
p477
(dp478
I1999
(lp479
I1000
asI2000
(lp480
I1000
asI2001
(lp481
I1000
asI2002
(lp482
I1000
asI2003
(lp483
I3000
asI2004
(lp484
I3000
asI2005
(lp485
I3000
asI2006
(lp486
I3000
asI2007
(lp487
I3000
asI2008
(lp488
I3000
asI2009
(lp489
I3000
asI2010
(lp490
I3000
asI2011
(lp491
I3000
asI2012
(lp492
I3000
asI2013
(lp493
I3000
asI2014
(lp494
I3000
asI2015
(lp495
I3000
assV\u5f00\u53d1\u5de5\u7a0b\u5e08
p496
(dp497
I1999
(lp498
I1000
asI2000
(lp499
I3000
asI2001
(lp500
I3000
asI2002
(lp501
I3000
asI2003
(lp502
I3000
asI2004
(lp503
I3000
asI2005
(lp504
I4000
asI2006
(lp505
I5000
asI2007
(lp506
I5000
asI2008
(lp507
I5000
asI2009
(lp508
I5000
asI2010
(lp509
I5000
asI2011
(lp510
I5000
asI2012
(lp511
I5000
asI2013
(lp512
I5000
asI2014
(lp513
I7000
asI2015
(lp514
I9000
assV\u9500\u552e\u4e13\u5458
p515
(dp516
I1999
(lp517
I3000
asI2000
(lp518
I1000
asI2001
(lp519
I3000
asI2002
(lp520
I3000
asI2003
(lp521
I3000
asI2004
(lp522
I3000
asI2005
(lp523
I3000
asI2006
(lp524
I3000
asI2007
(lp525
I3000
asI2008
(lp526
I3000
asI2009
(lp527
I3000
asI2010
(lp528
I3000
asI2011
(lp529
I3000
asI2012
(lp530
I3000
asI2013
(lp531
I3000
asI2014
(lp532
I3000
asI2015
(lp533
I5000
assV\u8fd0\u8425\u4e13\u5458
p534
(dp535
I1999
(lp536
I3000
asI2002
(lp537
I14500
asI2003
(lp538
I2000
asI2004
(lp539
I1000
asI2005
(lp540
I5000
asI2006
(lp541
I5000
asI2007
(lp542
I5000
asI2008
(lp543
I3000
asI2009
(lp544
I3000
asI2010
(lp545
I3000
asI2011
(lp546
I3000
asI2012
(lp547
I5000
asI2013
(lp548
I5000
asI2014
(lp549
I5000
asI2015
(lp550
I5000
assV\u8fd0\u8425\u603b\u76d1
p551
(dp552
I2002
(lp553
I8000
asI2003
(lp554
I20000
asI2004
(lp555
I12000
asI2005
(lp556
I7000
asI2006
(lp557
I12000
asI2007
(lp558
I9000
asI2008
(lp559
I15000
asI2009
(lp560
I9000
asI2010
(lp561
I15000
asI2011
(lp562
I15000
asI2012
(lp563
I15000
asI2013
(lp564
I15000
asI2014
(lp565
I15000
asI2015
(lp566
I15000
assV\u91c7\u8d2d\u7ecf\u7406
p567
(dp568
I1999
(lp569
I3000
asI2000
(lp570
I5000
asI2001
(lp571
I5000
asI2002
(lp572
I3000
asI2003
(lp573
I5000
asI2004
(lp574
I3000
asI2005
(lp575
I5000
asI2006
(lp576
I5000
asI2007
(lp577
I5000
asI2008
(lp578
I5000
asI2009
(lp579
I5000
asI2010
(lp580
I5000
asI2011
(lp581
I7000
asI2012
(lp582
I5000
asI2013
(lp583
I7000
asI2014
(lp584
I7000
asI2015
(lp585
I7000
assV\u5ba2\u670d
p586
(dp587
I1999
(lp588
I1000
asI2000
(lp589
I1000
asI2001
(lp590
I2000
asI2002
(lp591
I3000
asI2003
(lp592
I3000
asI2004
(lp593
I3000
asI2005
(lp594
I3000
asI2006
(lp595
I3000
asI2007
(lp596
I3000
asI2008
(lp597
I3000
asI2009
(lp598
I3000
asI2010
(lp599
I3000
asI2011
(lp600
I3000
asI2012
(lp601
I3000
asI2013
(lp602
I3000
asI2014
(lp603
I3000
asI2015
(lp604
I3000
assV\u7269\u6d41\u7ecf\u7406
p605
(dp606
I1999
(lp607
I3000
asI2000
(lp608
I3000
asI2001
(lp609
I3000
asI2002
(lp610
I3000
asI2003
(lp611
I3000
asI2004
(lp612
I3000
asI2005
(lp613
I3000
asI2006
(lp614
I3000
asI2007
(lp615
I3000
asI2008
(lp616
I3000
asI2009
(lp617
I4000
asI2010
(lp618
I5000
asI2011
(lp619
I5000
asI2012
(lp620
I5000
asI2013
(lp621
I5000
asI2014
(lp622
I5000
asI2015
(lp623
I5000
assV\u5ba2\u670d\u7ecf\u7406
p624
(dp625
I1999
(lp626
I5000
asI2000
(lp627
I3000
asI2001
(lp628
I4000
asI2002
(lp629
I3000
asI2003
(lp630
I4000
asI2004
(lp631
I3000
asI2005
(lp632
I3000
asI2006
(lp633
I3000
asI2007
(lp634
I3000
asI2008
(lp635
I5000
asI2009
(lp636
I5000
asI2010
(lp637
I5000
asI2011
(lp638
I5000
asI2012
(lp639
I5000
asI2013
(lp640
I5000
asI2014
(lp641
I5000
asI2015
(lp642
I5000
assV\u5e02\u573a\u4e13\u5458
p643
(dp644
I1999
(lp645
I3000
asI2000
(lp646
I3000
asI2001
(lp647
I3000
asI2002
(lp648
I5000
asI2003
(lp649
I3000
asI2004
(lp650
I4000
asI2005
(lp651
I3000
asI2006
(lp652
I3000
asI2007
(lp653
I3000
asI2008
(lp654
I3000
asI2009
(lp655
I3000
asI2010
(lp656
I3000
asI2011
(lp657
I3000
asI2012
(lp658
I3000
asI2013
(lp659
I5000
asI2014
(lp660
I5000
asI2015
(lp661
I5000
assV\u4f1a\u8ba1
p662
(dp663
I1999
(lp664
I1000
asI2000
(lp665
I1000
asI2001
(lp666
I1000
asI2002
(lp667
I1000
asI2003
(lp668
I1000
asI2004
(lp669
I3000
asI2005
(lp670
I3000
asI2006
(lp671
I3000
asI2007
(lp672
I3000
asI2008
(lp673
I3000
asI2009
(lp674
I3000
asI2010
(lp675
I3000
asI2011
(lp676
I3000
asI2012
(lp677
I3000
asI2013
(lp678
I3000
asI2014
(lp679
I3000
asI2015
(lp680
I5000
assV\u673a\u68b0\u5de5\u7a0b\u5e08
p681
(dp682
I1999
(lp683
I1000
asI2000
(lp684
I1000
asI2001
(lp685
I1000
asI2002
(lp686
I3000
asI2003
(lp687
I3000
asI2004
(lp688
I3000
asI2005
(lp689
I3000
asI2006
(lp690
I3000
asI2007
(lp691
I3000
asI2008
(lp692
I3000
asI2009
(lp693
I3000
asI2010
(lp694
I3000
asI2011
(lp695
I3000
asI2012
(lp696
I3000
asI2013
(lp697
I3000
asI2014
(lp698
I5000
asI2015
(lp699
I5000
assV\u540e\u52e4\u4e13\u5458
p700
(dp701
I1999
(lp702
I1000
asI2000
(lp703
I1000
asI2001
(lp704
I2000
asI2002
(lp705
I1000
asI2003
(lp706
I1000
asI2004
(lp707
I2000
asI2005
(lp708
I3000
asI2006
(lp709
I1000
asI2007
(lp710
I3000
asI2008
(lp711
I1000
asI2009
(lp712
I3000
asI2010
(lp713
I3000
asI2011
(lp714
I3000
asI2012
(lp715
I3000
asI2013
(lp716
I3000
asI2014
(lp717
I3000
asI2015
(lp718
I3000
assV\u751f\u4ea7\u603b\u76d1
p719
(dp720
I1999
(lp721
I1000
asI2000
(lp722
I2000
asI2001
(lp723
I5000
asI2002
(lp724
I1000
asI2003
(lp725
I5000
asI2004
(lp726
I7000
asI2005
(lp727
I6000
asI2006
(lp728
I5000
asI2007
(lp729
I7000
asI2008
(lp730
I7000
asI2009
(lp731
I6000
asI2010
(lp732
I9000
asI2011
(lp733
I12000
asI2012
(lp734
I9000
asI2013
(lp735
I15000
asI2014
(lp736
I15000
asI2015
(lp737
I15000
assV\u8d28\u91cf(QA/QC)
p738
(dp739
I1999
(lp740
I1000
asI2000
(lp741
I3000
asI2001
(lp742
I3000
asI2002
(lp743
I3000
asI2003
(lp744
I3000
asI2004
(lp745
I3000
asI2005
(lp746
I3000
asI2006
(lp747
I3000
asI2007
(lp748
I3000
asI2008
(lp749
I3000
asI2009
(lp750
I3000
asI2010
(lp751
I3000
asI2011
(lp752
I3000
asI2012
(lp753
I5000
asI2013
(lp754
I5000
asI2014
(lp755
I5000
asI2015
(lp756
I5000
ass.