c__builtin__
set
p0
((lp1
VCMO
p2
aV\u603b\u76d1
p3
aV\u5927\u533a\u7ecf\u7406
p4
aV\u9996\u5e2d
p5
aV\u603b\u88c1
p6
aV\u526f\u603b
p7
aV\u5382\u957f
p8
aVCOO
p9
aV\u603b\u7ecf\u7406
p10
atp11
Rp12
.